(dp1
L6831838L
I2062
sL671747L
I643
sL360452L
I166
sL1458181L
I1215
sL6L
I0
sL7L
I1
sL6832137L
I2085
sL10L
I2
sL11L
I3
sL12L
I4
sL6832141L
I2086
sL15L
I5
sL16L
I6
sL17L
I7
sL18L
I8
sL19L
I9
sL20L
I10
sL21L
I11
sL22L
I12
sL6832151L
I2089
sL24L
I13
sL25L
I14
sL26L
I15
sL27L
I16
sL1466396L
I1348
sL29L
I17
sL1474593L
I1534
sL3129379L
I1685
sL6834567L
I2254
sL1474597L
I1535
sL1450025L
I1030
sL1458219L
I1218
sL1474604L
I1536
sL1441838L
I965
sL679983L
I654
sL1473027L
I1435
sL393275L
I251
sL532540L
I466
sL532541L
I467
sL68L
I18
sL69L
I19
sL671815L
I644
sL1449996L
I1028
sL77L
I20
sL671823L
I645
sL507984L
I375
sL87L
I21
sL1449999L
I1029
sL6832220L
I2092
sL426077L
I289
sL1065054L
I748
sL2979173L
I1682
sL6832224L
I2094
sL6832225L
I2095
sL1466466L
I1349
sL524389L
I421
sL1450086L
I1032
sL475153L
I350
sL1466472L
I1350
sL1450089L
I1033
sL598123L
I568
sL1458194L
I1217
sL524398L
I422
sL393327L
I252
sL1450096L
I1034
sL1441811L
I963
sL360565L
I167
sL401428L
I264
sL360570L
I168
sL1458300L
I1219
sL1450111L
I1035
sL1466497L
I1351
sL1458311L
I1220
sL524424L
I423
sL1466506L
I1353
sL1458315L
I1221
sL680083L
I655
sL6830479L
I1963
sL1441817L
I964
sL1466520L
I1354
sL1450137L
I1036
sL6833519L
I2188
sL1458334L
I1222
sL524448L
I424
sL1458338L
I1223
sL639143L
I610
sL1450152L
I1037
sL532650L
I468
sL589995L
I555
sL1441966L
I967
sL6832157L
I2091
sL590005L
I556
sL6830753L
I1985
sL1450181L
I1038
sL1458374L
I1224
sL6828065L
I1786
sL372082L
I216
sL360655L
I169
sL6832339L
I2097
sL1474777L
I1538
sL6578400L
I1752
sL360682L
I170
sL1474798L
I1539
sL451965L
I316
sL1442037L
I968
sL590071L
I557
sL1466618L
I1355
sL6832379L
I2098
sL524541L
I425
sL680190L
I656
sL6832387L
I2099
sL65799L
I58
sL1474824L
I1540
sL1450249L
I1039
sL1059543L
I744
sL1458445L
I1226
sL1474830L
I1541
sL6832399L
I2102
sL1450260L
I1040
sL590101L
I558
sL360727L
I171
sL663832L
I640
sL6832412L
I2103
sL6832413L
I2104
sL6832414L
I2105
sL6832417L
I2106
sL6833543L
I2189
sL360749L
I172
sL6835667L
I2296
sL360753L
I173
sL409911L
I271
sL6838668L
I2317
sL1474876L
I1542
sL6832446L
I2107
sL655681L
I631
sL1040712L
I728
sL1458505L
I1227
sL1458508L
I1228
sL6832466L
I2108
sL631130L
I601
sL516444L
I376
sL590174L
I559
sL1458528L
I1229
sL368993L
I214
sL1450043L
I1031
sL516458L
I377
sL2965868L
I1680
sL614768L
I583
sL590193L
I560
sL1442169L
I969
sL172419L
I82
sL6832524L
I2111
sL663950L
I641
sL1474959L
I1543
sL1458577L
I1231
sL115094L
I66
sL1098135L
I760
sL1466776L
I1356
sL1442205L
I970
sL516519L
I378
sL1466801L
I1357
sL3310003L
I1694
sL1473040L
I1438
sL1475004L
I1544
sL426439L
I290
sL958923L
I702
sL115148L
I67
sL1447945L
I1019
sL5104087L
I1735
sL459226L
I322
sL3317839L
I1701
sL6835400L
I2285
sL983519L
I706
sL393697L
I253
sL1473275L
I1470
sL360937L
I174
sL705007L
I684
sL1450488L
I1041
sL49658L
I52
sL6832635L
I2114
sL6834310L
I2224
sL1454165L
I1100
sL516608L
I379
sL1475074L
I1546
sL639496L
I611
sL426507L
I291
sL1475096L
I1547
sL533018L
I469
sL3555879L
I1710
sL49706L
I53
sL1441885L
I966
sL1475123L
I1548
sL49719L
I54
sL533050L
I470
sL1458747L
I1232
sL320060L
I122
sL6834954L
I2269
sL1475137L
I1549
sL41544L
I51
sL516681L
I380
sL115279L
I68
sL1450576L
I1042
sL361050L
I175
sL516699L
I382
sL533086L
I471
sL2138721L
I1656
sL6832757L
I2115
sL6832759L
I2116
sL6832760L
I2117
sL6832772L
I2118
sL656005L
I632
sL6832784L
I2119
sL6832787L
I2120
sL2007700L
I1605
sL6829508L
I1797
sL1467039L
I1358
sL6832240L
I2096
sL2097837L
I1627
sL705211L
I685
sL1991367L
I1585
sL6832840L
I2121
sL434892L
I295
sL525008L
I426
sL3670744L
I1724
sL6832857L
I2122
sL6832862L
I2123
sL2114271L
I1648
sL6832865L
I2124
sL402150L
I265
sL1320401L
I774
sL533233L
I472
sL434930L
I296
sL525046L
I427
sL590595L
I561
sL1458948L
I1233
sL6832904L
I2125
sL5331757L
I1738
sL6832916L
I2126
sL549655L
I498
sL2933532L
I1679
sL1458975L
I1234
sL1466503L
I1352
sL639788L
I612
sL975664L
I704
sL3604616L
I1716
sL394037L
I254
sL6832951L
I2127
sL6832953L
I2128
sL1884988L
I1576
sL6832958L
I2130
sL1440565L
I933
sL3531584L
I1708
sL6832961L
I2133
sL1975106L
I1584
sL533321L
I473
sL1991499L
I1586
sL713555L
I688
sL6832981L
I2135
sL1475415L
I1550
sL6832984L
I2136
sL6832985L
I2137
sL6832986L
I2138
sL172892L
I83
sL2032477L
I1612
sL6832990L
I2140
sL6832991L
I2141
sL1459041L
I1235
sL6832995L
I2142
sL6833004L
I2143
sL2130799L
I1654
sL533366L
I474
sL6833015L
I2144
sL6833016L
I2145
sL533379L
I475
sL533384L
I476
sL1475467L
I1551
sL689039L
I662
sL517009L
I383
sL1459101L
I1236
sL672674L
I646
sL467876L
I326
sL426918L
I292
sL1475496L
I1552
sL2966441L
I1681
sL467891L
I327
sL443316L
I306
sL1467325L
I1359
sL467905L
I328
sL6833091L
I2146
sL6833093L
I2147
sL6832143L
I2087
sL467914L
I329
sL6833101L
I2148
sL6833102L
I2149
sL6833104L
I2150
sL6833106L
I2151
sL361440L
I176
sL680930L
I657
sL6407139L
I1749
sL6833124L
I2152
sL6833127L
I2153
sL6833131L
I2154
sL6833146L
I2155
sL25600L
I43
sL189451L
I86
sL361486L
I177
sL6829891L
I1878
sL6833171L
I2156
sL328724L
I125
sL418839L
I286
sL6833194L
I2157
sL1033260L
I723
sL640048L
I613
sL394297L
I255
sL6830943L
I1989
sL1066046L
I749
sL599105L
I569
sL640067L
I614
sL500810L
I364
sL533581L
I477
sL2008144L
I1606
sL6833235L
I2158
sL468054L
I330
sL574551L
I546
sL1467484L
I1360
sL6832148L
I2088
sL1098849L
I761
sL6831057L
I2009
sL468068L
I331
sL6833254L
I2159
sL500839L
I365
sL6829586L
I1807
sL6833264L
I2160
sL1446078L
I978
sL5096567L
I1734
sL1475706L
I1553
sL2139264L
I1658
sL468099L
I332
sL476292L
I351
sL25734L
I44
sL1442960L
I972
sL2139284L
I1659
sL6830958L
I1994
sL591001L
I562
sL25755L
I45
sL468129L
I333
sL6833320L
I2161
sL6833321L
I2162
sL5329095L
I1737
sL468142L
I334
sL1454280L
I1104
sL6831878L
I2071
sL83487L
I61
sL1017027L
I719
sL476364L
I352
sL1474765L
I1537
sL500944L
I366
sL6832971L
I2134
sL550126L
I499
sL1475823L
I1554
sL468208L
I335
sL533748L
I479
sL550135L
I500
sL4187385L
I1729
sL50434L
I55
sL6833411L
I2164
sL2114821L
I1649
sL6833416L
I2166
sL6833418L
I2167
sL6833419L
I2168
sL1475853L
I1555
sL1475865L
I1556
sL1471705L
I1369
sL6835077L
I2274
sL2139428L
I1660
sL6833445L
I2170
sL6833449L
I2171
sL501034L
I367
sL394544L
I256
sL6833458L
I2173
sL6833459L
I2174
sL1475892L
I1557
sL1041719L
I729
sL525625L
I428
sL6833468L
I2176
sL468286L
I336
sL6833471L
I2178
sL1475904L
I1558
sL1467713L
I1361
sL394566L
I257
sL6833481L
I2179
sL107850L
I65
sL6833483L
I2180
sL6833485L
I2181
sL6833487L
I2182
sL6833488L
I2183
sL6833489L
I2184
sL6833492L
I2185
sL6833507L
I2186
sL476517L
I353
sL1475942L
I1559
sL6833517L
I2187
sL550255L
I501
sL533872L
I480
sL1033585L
I724
sL378227L
I232
sL1458410L
I1225
sL1475968L
I1560
sL1467781L
I1362
sL1459590L
I1237
sL1475975L
I1561
sL525705L
I429
sL370058L
I215
sL6833551L
I2190
sL6832076L
I2083
sL6833589L
I2191
sL550326L
I502
sL361911L
I178
sL6833596L
I2192
sL632254L
I602
sL550341L
I503
sL1992137L
I1587
sL6833614L
I2194
sL1451473L
I1043
sL468444L
I337
sL6833637L
I2195
sL6292972L
I1747
sL6833663L
I2196
sL457646L
I320
sL1459735L
I1238
sL2115100L
I1650
sL6829658L
I1810
sL676101L
I652
sL468512L
I338
sL1033763L
I725
sL6832392L
I2100
sL6832393L
I2101
sL1451577L
I1044
sL403005L
I266
sL3565118L
I1712
sL1459776L
I1239
sL6833743L
I2197
sL1271376L
I773
sL6833753L
I2198
sL5105251L
I1736
sL1473468L
I1481
sL6831037L
I2004
sL6831893L
I2075
sL6831039L
I2005
sL550525L
I504
sL403074L
I267
sL332055L
I129
sL255634L
I117
sL1476253L
I1562
sL476832L
I354
sL1459880L
I1240
sL3140154L
I1686
sL2475694L
I1673
sL1459892L
I1241
sL411323L
I272
sL517821L
I384
sL1455733L
I1135
sL468681L
I339
sL1459916L
I1242
sL526033L
I430
sL1459922L
I1243
sL468693L
I340
sL50905L
I56
sL6831055L
I2008
sL6833885L
I2201
sL6833888L
I2202
sL6833889L
I2203
sL1713892L
I1570
sL673511L
I647
sL394985L
I258
sL1115883L
I763
sL6833789L
I2199
sL6833907L
I2204
sL567028L
I519
sL640763L
I616
sL6829896L
I1880
sL640773L
I617
sL567050L
I520
sL6833936L
I2206
sL1459993L
I1244
sL1460000L
I1245
sL345898L
I136
sL1473501L
I1483
sL6833972L
I2207
sL1058616L
I742
sL640651L
I615
sL457698L
I321
sL198479L
I91
sL364856L
I209
sL91988L
I62
sL6834007L
I2208
sL329562L
I127
sL1460062L
I1246
sL362335L
I179
sL182114L
I85
sL6834019L
I2210
sL6831078L
I2012
sL1460078L
I1247
sL1460082L
I1248
sL2025337L
I1609
sL468859L
I341
sL408965L
I270
sL567188L
I521
sL6834074L
I2212
sL1473519L
I1485
sL640929L
I618
sL6834088L
I2213
sL575405L
I547
sL519716L
I390
sL1451952L
I1045
sL2097480L
I1626
sL6834106L
I2214
sL6834108L
I2215
sL6653886L
I1753
sL2006005L
I1602
sL6834115L
I2216
sL468939L
I342
sL698321L
I677
sL1796052L
I1574
sL1473529L
I1487
sL550884L
I505
sL567281L
I522
sL468978L
I343
sL1473534L
I1489
sL5335035L
I1739
sL567292L
I523
sL378892L
I233
sL1419277L
I810
sL673807L
I648
sL2101592L
I1639
sL6823178L
I1760
sL1476639L
I1563
sL501795L
I368
sL6834218L
I2218
sL518198L
I385
sL559160L
I517
sL567354L
I524
sL6834235L
I2219
sL469057L
I344
sL2100235L
I1633
sL6834244L
I2220
sL6834246L
I2221
sL1458529L
I1230
sL1050697L
I733
sL59473L
I57
sL6832483L
I2109
sL1460309L
I1249
sL1452120L
I1046
sL1419358L
I811
sL632938L
I603
sL6834292L
I2222
sL1446249L
I992
sL3311741L
I1695
sL469122L
I345
sL6834309L
I2223
sL436358L
I297
sL436364L
I298
sL690317L
I663
sL6834318L
I2225
sL690319L
I664
sL6834320L
I2226
sL2001042L
I1590
sL616601L
I585
sL444580L
I307
sL6834341L
I2227
sL2156716L
I1667
sL6834351L
I2228
sL1446260L
I993
sL6829770L
I1830
sL6834372L
I2229
sL362695L
I180
sL1476816L
I1564
sL482339L
I361
sL6834404L
I2230
sL6834411L
I2231
sL6834412L
I2232
sL6834415L
I2233
sL1460465L
I1250
sL411893L
I273
sL6829780L
I1837
sL6834427L
I2235
sL2115837L
I1651
sL1460484L
I1251
sL1460487L
I1252
sL1460489L
I1253
sL1439447L
I863
sL1460499L
I1254
sL6833881L
I2200
sL1460511L
I1255
sL1460512L
I1256
sL1473584L
I1492
sL1460521L
I1257
sL6834477L
I2236
sL6834482L
I2237
sL1460533L
I1258
sL1173816L
I769
sL1460549L
I1259
sL1460554L
I1260
sL6829794L
I1840
sL166229L
I75
sL1485147L
I1566
sL567645L
I526
sL1472229L
I1377
sL1460576L
I1261
sL205201L
I99
sL502120L
I369
sL6834538L
I2238
sL6834539L
I2239
sL6834540L
I2240
sL6834542L
I2241
sL6834544L
I2242
sL6834546L
I2243
sL6834547L
I2244
sL3311988L
I1696
sL6834549L
I2246
sL395638L
I259
sL329449L
I126
sL6834553L
I2248
sL1460603L
I1262
sL1460605L
I1263
sL6834559L
I2251
sL6834561L
I2252
sL1460611L
I1264
sL690567L
I665
sL661228L
I633
sL1460621L
I1265
sL1460631L
I1266
sL1460639L
I1267
sL1452454L
I1047
sL3983785L
I1728
sL1067435L
I750
sL6829810L
I1843
sL1460657L
I1268
sL395702L
I260
sL1444280L
I973
sL1460666L
I1269
sL1034687L
I726
sL1460676L
I1270
sL6834629L
I2255
sL6834632L
I2256
sL174538L
I84
sL1460686L
I1272
sL1460687L
I1273
sL1460690L
I1274
sL6836643L
I2305
sL674263L
I649
sL1460699L
I1275
sL469468L
I346
sL2001374L
I1591
sL1460705L
I1276
sL2001379L
I1592
sL567781L
I527
sL723430L
I693
sL1460714L
I1277
sL215543L
I102
sL379387L
I234
sL6826494L
I1761
sL698881L
I678
sL1411588L
I805
sL1460752L
I1278
sL461333L
I323
sL6826523L
I1762
sL6834718L
I2258
sL6826528L
I1763
sL1411623L
I806
sL6834729L
I2259
sL6826550L
I1764
sL2001466L
I1594
sL1460795L
I1279
sL612107L
I580
sL1460804L
I1280
sL3326390L
I1704
sL3304008L
I1693
sL723529L
I694
sL1460810L
I1281
sL3631693L
I1719
sL1067600L
I751
sL1473635L
I1498
sL2001494L
I1595
sL1460829L
I1282
sL6834782L
I2262
sL1485407L
I1567
sL715360L
I689
sL6829840L
I1857
sL6834808L
I2263
sL6834811L
I2264
sL6826620L
I1765
sL2001534L
I1596
sL346753L
I137
sL6834822L
I2265
sL6834824L
I2266
sL387721L
I246
sL6835309L
I2281
sL1460880L
I1283
sL1460886L
I1284
sL1460890L
I1285
sL1460893L
I1286
sL1446341L
I1002
sL477861L
I355
sL6826665L
I1766
sL625324L
I587
sL2100338L
I1634
sL6829853L
I1861
sL1600177L
I1568
sL1460914L
I1287
sL1461363L
I1312
sL3009207L
I1683
sL731832L
I697
sL1460923L
I1288
sL1460926L
I1289
sL6831221L
I2020
sL625347L
I588
sL1460938L
I1290
sL1460941L
I1291
sL6834897L
I2267
sL535255L
I481
sL1059544L
I745
sL1460953L
I1293
sL690906L
I666
sL690909L
I667
sL6834917L
I2268
sL1133287L
I766
sL1460973L
I1294
sL6829865L
I1865
sL6826748L
I1767
sL1460995L
I1295
sL1460999L
I1296
sL363274L
I181
sL629892L
I599
sL2108186L
I1644
sL6829871L
I1867
sL1442266L
I971
sL363296L
I182
sL6826786L
I1768
sL674597L
I650
sL6829873L
I1869
sL6834986L
I2270
sL6831239L
I2024
sL363308L
I183
sL1461048L
I1297
sL6835004L
I2271
sL2108223L
I1645
sL6826817L
I1769
sL6835012L
I2272
sL2007521L
I1604
sL363337L
I184
sL363340L
I185
sL1461071L
I1298
sL6829880L
I1873
sL6832611L
I2113
sL1461077L
I1299
sL437089L
I299
sL355170L
I139
sL6835050L
I2273
sL6829885L
I1875
sL19316L
I42
sL496105L
I362
sL2100088L
I1628
sL502650L
I370
sL6829887L
I1876
sL1461118L
I1300
sL1461125L
I1301
sL674697L
I651
sL1461133L
I1302
sL379791L
I235
sL1423171L
I815
sL1475055L
I1545
sL347040L
I138
sL6828528L
I1789
sL2001826L
I1597
sL461735L
I324
sL1461169L
I1303
sL6826932L
I1770
sL1461176L
I1304
sL1461183L
I1305
sL6835138L
I2275
sL2100163L
I1629
sL6835140L
I2276
sL3156938L
I1688
sL1461197L
I1306
sL2100175L
I1630
sL6826960L
I1771
sL1461213L
I1307
sL3075048L
I1684
sL6835184L
I2277
sL1043441L
I730
sL363511L
I186
sL6835192L
I2278
sL1453049L
I1048
sL6827005L
I1772
sL2100223L
I1631
sL6831841L
I2063
sL2100233L
I1632
sL363531L
I187
sL1461261L
I1308
sL6835218L
I2279
sL6835219L
I2280
sL1461273L
I1309
sL6834010L
I2209
sL396321L
I261
sL1453091L
I1049
sL527402L
I431
sL527411L
I432
sL519220L
I386
sL3165237L
I1689
sL1018934L
I720
sL6829919L
I1890
sL527421L
I433
sL289854L
I119
sL6832223L
I2093
sL1403978L
I785
sL1461323L
I1310
sL1403998L
I786
sL6834021L
I2211
sL1461344L
I1311
sL2067644L
I1622
sL527469L
I434
sL6835389L
I2283
sL1453170L
I1050
sL363635L
I188
sL527483L
I435
sL6835392L
I2284
sL355458L
I140
sL2067587L
I1621
sL1446422L
I1008
sL6835339L
I2282
sL6827149L
I1773
sL6827203L
I1774
sL527509L
I436
sL1453210L
I1051
sL330912L
I128
sL527525L
I437
sL527527L
I438
sL527529L
I439
sL1453228L
I1052
sL3549042L
I1709
sL527535L
I440
sL527536L
I441
sL6827208L
I1775
sL527538L
I442
sL1453235L
I1054
sL1469625L
I1363
sL1461435L
I1313
sL1404092L
I787
sL1404093L
I788
sL478400L
I356
sL1404099L
I789
sL527560L
I443
sL363724L
I189
sL6827213L
I1776
sL363730L
I190
sL1461464L
I1314
sL1438244L
I820
sL6839503L
I2320
sL306404L
I121
sL1035494L
I727
sL240871L
I112
sL363752L
I191
sL1453292L
I1055
sL1453295L
I1056
sL2149617L
I1666
sL1404146L
I790
sL6835445L
I2286
sL1446441L
I1009
sL1473748L
I1506
sL1453314L
I1057
sL1461509L
I1315
sL1453319L
I1058
sL1404171L
I791
sL1461522L
I1316
sL6827288L
I1777
sL1461531L
I1317
sL6835490L
I2288
sL1453348L
I1059
sL6829958L
I1897
sL1453354L
I1060
sL6835501L
I2289
sL6835502L
I2290
sL6835503L
I2291
sL1453360L
I1061
sL6835505L
I2292
sL1453363L
I1062
sL6829961L
I1899
sL6829962L
I1900
sL1461569L
I1319
sL1969476L
I1579
sL532436L
I465
sL1461591L
I1320
sL3421L
I22
sL2100577L
I1635
sL363875L
I192
sL363878L
I193
sL522129L
I400
sL6827368L
I1778
sL363881L
I194
sL200050L
I92
sL6829971L
I1901
sL1453432L
I1063
sL6830589L
I1975
sL503168L
I371
sL1453446L
I1064
sL523500L
I406
sL4674L
I33
sL1453455L
I1065
sL1453463L
I1066
sL6827416L
I1779
sL1453465L
I1067
sL1731998L
I1571
sL1453471L
I1068
sL191909L
I87
sL1453481L
I1069
sL1461676L
I1321
sL642477L
I619
sL6835631L
I2295
sL691632L
I668
sL6830944L
I1990
sL6827445L
I1780
sL363958L
I195
sL1461693L
I1322
sL2010564L
I1607
sL1461702L
I1323
sL616353L
I584
sL1453513L
I1070
sL6835447L
I2287
sL1453519L
I1071
sL2141651L
I1661
sL363989L
I196
sL568791L
I528
sL1453534L
I1072
sL1453539L
I1073
sL1461734L
I1324
sL6829992L
I1910
sL200184L
I94
sL544249L
I495
sL1453562L
I1075
sL6838504L
I2316
sL519681L
I387
sL6829995L
I1912
sL1453232L
I1053
sL6835724L
I2297
sL642578L
I620
sL1453587L
I1076
sL1453588L
I1077
sL1453591L
I1078
sL6834686L
I2257
sL626204L
I589
sL516698L
I381
sL6835742L
I2298
sL1453599L
I1079
sL519713L
I389
sL536100L
I483
sL3621L
I23
sL167468L
I76
sL364077L
I197
sL3558968L
I1711
sL724541L
I695
sL3650L
I24
sL527943L
I444
sL355912L
I141
sL6667532L
I1756
sL1453655L
I1081
sL2109019L
I1646
sL3680L
I25
sL1191529L
I771
sL1446503L
I1010
sL2100849L
I1637
sL6833598L
I2193
sL6833915L
I2205
sL3657346L
I1720
sL536195L
I484
sL1404549L
I793
sL5090950L
I1733
sL355978L
I142
sL1453707L
I1082
sL2176184L
I1669
sL6835854L
I2299
sL626319L
I590
sL1453714L
I1083
sL1453716L
I1084
sL1896095L
I1578
sL1396384L
I775
sL1396385L
I776
sL1404578L
I794
sL380581L
I236
sL1453739L
I1085
sL3758L
I26
sL1396399L
I778
sL700081L
I679
sL3763L
I27
sL364216L
I198
sL569021L
I529
sL1473824L
I1510
sL3781L
I28
sL2109126L
I1647
sL6835916L
I2300
sL1453779L
I1086
sL1396436L
I779
sL6835926L
I2301
sL1396441L
I780
sL364253L
I199
sL364257L
I200
sL1396450L
I781
sL1068774L
I752
sL1461992L
I1325
sL1470189L
I1365
sL324221L
I123
sL364289L
I201
sL1453835L
I1087
sL1404684L
I795
sL6827790L
I1781
sL6827791L
I1782
sL6663952L
I1754
sL1439704L
I885
sL6839599L
I2324
sL1453852L
I1088
sL1396510L
I782
sL6836004L
I2302
sL1453862L
I1089
sL1453866L
I1090
sL1453869L
I1091
sL1461555L
I1318
sL2101044L
I1638
sL642870L
I621
sL446263L
I309
sL36670L
I49
sL6664003L
I1755
sL446280L
I310
sL1396554L
I783
sL585548L
I549
sL1453903L
I1092
sL1462112L
I1327
sL1453923L
I1093
sL438122L
I300
sL6830055L
I1923
sL6832515L
I2110
sL364403L
I202
sL520057L
I392
sL1473855L
I1511
sL692100L
I669
sL192394L
I88
sL12171L
I37
sL364431L
I203
sL356240L
I143
sL6830334L
I1948
sL626578L
I591
sL1453973L
I1094
sL642967L
I622
sL249757L
I115
sL520097L
I393
sL4004L
I29
sL2142120L
I1662
sL6839623L
I2325
sL3714989L
I1727
sL6827951L
I1783
sL520117L
I394
sL1462204L
I1328
sL1757117L
I1572
sL6830069L
I1925
sL1454016L
I1095
sL1454021L
I1096
sL364490L
I204
sL6827981L
I1784
sL364499L
I205
sL3321813L
I1702
sL1462241L
I1329
sL6828006L
I1785
sL1462249L
I1330
sL2062333L
I1617
sL1454066L
I1097
sL1888244L
I1577
sL1454072L
I1098
sL995324L
I713
sL380927L
I237
sL389120L
I247
sL569350L
I530
sL241671L
I113
sL4106L
I30
sL1404247L
I792
sL356370L
I144
sL6830083L
I1928
sL372756L
I217
sL602142L
I570
sL241695L
I114
sL217121L
I103
sL569384L
I531
sL6828077L
I1787
sL716855L
I690
sL364607L
I206
sL1454149L
I1099
sL1457070L
I1162
sL6834188L
I2217
sL364628L
I207
sL626773L
I592
sL1053370L
I735
sL2093151L
I1625
sL217184L
I104
sL3321961L
I1703
sL3625078L
I1717
sL1473898L
I1512
sL643208L
I623
sL1454220L
I1101
sL4237L
I31
sL364687L
I208
sL626835L
I593
sL6836376L
I2304
sL585888L
I550
sL643238L
I624
sL1446060L
I974
sL1446061L
I975
sL1446062L
I976
sL1454256L
I1102
sL413879L
I274
sL1446073L
I977
sL1462462L
I1331
sL1454275L
I1103
sL1473590L
I1494
sL1446088L
I979
sL523639L
I409
sL1454284L
I1105
sL1446094L
I980
sL1462481L
I1332
sL1446101L
I981
sL1446104L
I982
sL1454309L
I1106
sL3600615L
I1715
sL1880301L
I1575
sL1454329L
I1107
sL6830122L
I1931
sL1446142L
I983
sL356609L
I145
sL217349L
I105
sL356619L
I146
sL1446156L
I984
sL643341L
I625
sL1446159L
I985
sL594193L
I563
sL1446167L
I986
sL1454360L
I1108
sL1454361L
I1109
sL37151L
I50
sL528674L
I445
sL1995061L
I1588
sL168248L
I77
sL1446201L
I987
sL1995068L
I1589
sL1454403L
I1110
sL1446217L
I988
sL1446219L
I989
sL1446223L
I990
sL1446228L
I991
sL627032L
I594
sL6830622L
I1977
sL1462622L
I1333
sL2142562L
I1663
sL389477L
I248
sL1454441L
I1111
sL6830077L
I1926
sL6828401L
I1788
sL381298L
I238
sL414068L
I275
sL6837170L
I2309
sL1446273L
I994
sL1446274L
I995
sL1446278L
I996
sL569738L
I532
sL364940L
I210
sL29070L
I46
sL1454483L
I1112
sL364949L
I211
sL1446294L
I997
sL356759L
I147
sL1446299L
I998
sL692643L
I670
sL1446309L
I999
sL414118L
I276
sL1446311L
I1000
sL1454507L
I1113
sL6839710L
I2328
sL1446326L
I1001
sL4536L
I32
sL1454526L
I1114
sL1454527L
I1115
sL1053120L
I734
sL364997L
I212
sL1446352L
I1003
sL1446353L
I1004
sL1446354L
I1005
sL2142675L
I1665
sL663559L
I639
sL2085338L
I1623
sL1446369L
I1006
sL1454569L
I1116
sL373232L
I218
sL1446396L
I1007
sL463361L
I325
sL2036227L
I1613
sL692744L
I671
sL6835628L
I2294
sL1469869L
I1364
sL33539L
I48
sL1438230L
I818
sL373275L
I219
sL1438243L
I819
sL12836L
I38
sL1438249L
I821
sL1441204L
I952
sL1438270L
I822
sL209471L
I100
sL414274L
I277
sL6830177L
I1938
sL1438280L
I823
sL1454669L
I1117
sL1438291L
I824
sL1454677L
I1118
sL168535L
I78
sL2003545L
I1599
sL1474273L
I1528
sL569955L
I533
sL1438308L
I825
sL1438311L
I826
sL1454696L
I1119
sL1438322L
I827
sL1438323L
I828
sL1438324L
I829
sL2062441L
I1619
sL1438333L
I830
sL70275L
I59
sL1446533L
I1011
sL6839361L
I2318
sL5042832L
I1732
sL1438353L
I831
sL1438365L
I832
sL1438370L
I833
sL200089L
I93
sL643750L
I626
sL725676L
I696
sL1438381L
I834
sL1438383L
I835
sL2142593L
I1664
sL1438388L
I836
sL1438394L
I837
sL6836926L
I2306
sL1069763L
I753
sL1446599L
I1012
sL225997L
I109
sL6837027L
I2307
sL2118357L
I1652
sL2100687L
I1636
sL447199L
I311
sL996065L
I714
sL1454823L
I1120
sL3568370L
I1713
sL1454835L
I1121
sL1438458L
I838
sL1454845L
I1122
sL414469L
I278
sL6828806L
I1790
sL1397516L
I784
sL480015L
I357
sL1438482L
I839
sL1438495L
I840
sL373539L
I220
sL100486L
I64
sL1458186L
I1216
sL1438521L
I841
sL627514L
I595
sL414528L
I279
sL1456267L
I1146
sL365381L
I213
sL889671L
I698
sL439112L
I301
sL1446729L
I1013
sL381774L
I239
sL987985L
I707
sL523747L
I412
sL6837078L
I2308
sL1454948L
I1123
sL1971045L
I1580
sL6832956L
I2129
sL2601837L
I1677
sL1454961L
I1124
sL1446770L
I1014
sL1004406L
I715
sL6832959L
I2131
sL1438592L
I843
sL6832960L
I2132
sL701316L
I680
sL1438597L
I844
sL643978L
I627
sL373645L
I221
sL447385L
I312
sL1438619L
I845
sL455587L
I317
sL1446823L
I1015
sL1471405L
I1366
sL1438536L
I842
sL2167730L
I1668
sL496570L
I363
sL1438659L
I847
sL693193L
I673
sL717770L
I691
sL1453561L
I1074
sL357338L
I148
sL6837213L
I2310
sL627685L
I596
sL332780L
I130
sL1455087L
I1125
sL6829044L
I1792
sL586742L
I551
sL586744L
I552
sL6830250L
I1944
sL1438724L
I849
sL3658757L
I1721
sL1455114L
I1126
sL1455117L
I1127
sL701461L
I681
sL1446939L
I1016
sL6829085L
I1793
sL13346L
I39
sL521255L
I395
sL2092715L
I1624
sL6832989L
I2139
sL193588L
I89
sL398389L
I262
sL6837305L
I2311
sL1446971L
I1017
sL635967L
I604
sL6837312L
I2312
sL693313L
I674
sL529476L
I447
sL521286L
I396
sL1455176L
I1128
sL5193L
I34
sL2039309L
I1614
sL3705017L
I1726
sL1438813L
I850
sL6830375L
I1953
sL1438820L
I851
sL1471599L
I1367
sL519700L
I388
sL1438842L
I852
sL1602692L
I1569
sL414858L
I280
sL536087L
I482
sL1012882L
I716
sL6830275L
I1945
sL1438870L
I853
sL382106L
I240
sL1447073L
I1018
sL537763L
I485
sL332965L
I131
sL302620L
I120
sL373944L
I222
sL586944L
I553
sL445985L
I308
sL6838478L
I2315
sL1012950L
I717
sL1453604L
I1080
sL1012960L
I718
sL1438947L
I854
sL1463524L
I1334
sL1438950L
I855
sL1455339L
I1129
sL1971445L
I1581
sL2176248L
I1670
sL2004221L
I1600
sL1472726L
I1387
sL1472727L
I1388
sL3405074L
I1706
sL1471774L
I1370
sL521503L
I397
sL6834746L
I2260
sL1455398L
I1130
sL611623L
I576
sL218414L
I106
sL415024L
I281
sL415025L
I282
sL357682L
I149
sL1971509L
I1582
sL30009L
I47
sL415035L
I283
sL693130L
I672
sL333130L
I132
sL685389L
I658
sL6337889L
I1748
sL374116L
I223
sL1472935L
I1423
sL6829425L
I1794
sL6829426L
I1795
sL644469L
I628
sL374134L
I224
sL1078652L
I755
sL382340L
I241
sL1471886L
I1371
sL693652L
I675
sL611733L
I577
sL4903833L
I1731
sL611743L
I578
sL1455525L
I1131
sL693678L
I676
sL6829492L
I1796
sL1471928L
I1372
sL6837689L
I2313
sL439748L
I302
sL1439173L
I856
sL603590L
I572
sL6575561L
I1751
sL914891L
I701
sL6834425L
I2234
sL6829529L
I1798
sL6829538L
I1799
sL210403L
I101
sL382439L
I242
sL6829544L
I1800
sL529897L
I448
sL6829546L
I1801
sL1438631L
I846
sL1455599L
I1132
sL1439218L
I857
sL6829557L
I1802
sL1471991L
I1373
sL6829562L
I1803
sL2536957L
I1675
sL6829570L
I1804
sL1439236L
I858
sL1474135L
I1521
sL6829580L
I1805
sL6829581L
I1806
sL1472018L
I1374
sL611861L
I579
sL567556L
I525
sL529965L
I449
sL1472776L
I1397
sL1455668L
I1133
sL374325L
I225
sL1455670L
I1134
sL2602555L
I1678
sL6829628L
I1808
sL1472070L
I1375
sL1474145L
I1522
sL6829640L
I1809
sL390732L
I249
sL530000L
I450
sL628313L
I597
sL357978L
I150
sL6830351L
I1951
sL1439325L
I859
sL988772L
I708
sL6829670L
I1811
sL1472944L
I1426
sL6837876L
I2314
sL374389L
I226
sL382582L
I243
sL3397246L
I1705
sL251536L
I116
sL6829713L
I1812
sL6829715L
I1813
sL6829716L
I1814
sL1054368L
I736
sL1455777L
I1136
sL1078947L
I756
sL6829732L
I1815
sL6829734L
I1816
sL6829737L
I1817
sL161450L
I72
sL6829739L
I1818
sL6829740L
I1819
sL6829741L
I1820
sL6829742L
I1821
sL1439413L
I860
sL6829750L
I1822
sL6829752L
I1823
sL529354L
I446
sL6829758L
I1824
sL6829759L
I1825
sL1439426L
I861
sL6829764L
I1826
sL6829765L
I1827
sL6829766L
I1828
sL6829769L
I1829
sL644810L
I629
sL6829771L
I1831
sL6829772L
I1832
sL6829773L
I1833
sL6829774L
I1834
sL6829776L
I1835
sL6829777L
I1836
sL1439442L
I862
sL1455828L
I1137
sL6829781L
I1838
sL530135L
I451
sL1472220L
I1376
sL6829792L
I1839
sL1439457L
I864
sL1439458L
I865
sL1455845L
I1138
sL6829800L
I1841
sL1455850L
I1139
sL1439467L
I866
sL1439468L
I867
sL1455853L
I1140
sL1455855L
I1141
sL6829809L
I1842
sL1472242L
I1378
sL6829811L
I1844
sL6829812L
I1845
sL6829813L
I1846
sL1439478L
I868
sL1472809L
I1402
sL6829818L
I1847
sL6829820L
I1848
sL6829821L
I1849
sL6715134L
I1757
sL6829823L
I1850
sL358145L
I151
sL6829826L
I1851
sL1439491L
I869
sL6829830L
I1852
sL6829833L
I1853
sL6829834L
I1854
sL1423115L
I812
sL6829836L
I1855
sL6829839L
I1856
sL415504L
I284
sL1423121L
I813
sL612114L
I581
sL6829843L
I1858
sL6829849L
I1859
sL1423131L
I814
sL6829852L
I1860
sL6829018L
I1791
sL6829856L
I1862
sL6829857L
I1863
sL3317778L
I1700
sL1455907L
I1142
sL530212L
I452
sL6829864L
I1864
sL1455913L
I1143
sL661292L
I634
sL6829870L
I1866
sL1439535L
I870
sL6829872L
I1868
sL710449L
I686
sL6829875L
I1870
sL6829876L
I1871
sL6829878L
I1872
sL1439544L
I871
sL1079099L
I757
sL6829884L
I1874
sL1439549L
I872
sL6289214L
I1745
sL1439551L
I873
sL6829888L
I1877
sL1439555L
I874
sL6829893L
I1879
sL456520L
I318
sL6829900L
I1881
sL6829901L
I1882
sL6829903L
I1883
sL522064L
I398
sL530257L
I453
sL6829909L
I1884
sL6829910L
I1885
sL1439576L
I875
sL6829913L
I1886
sL6829916L
I1887
sL6829917L
I1888
sL6829918L
I1889
sL603109L
I571
sL3151714L
I1687
sL6829928L
I1891
sL1439597L
I876
sL6829935L
I1892
sL6829936L
I1893
sL6829947L
I1894
sL6829948L
I1895
sL6829949L
I1896
sL1439614L
I877
sL522117L
I399
sL382854L
I244
sL6829959L
I1898
sL6024L
I35
sL1438700L
I848
sL5838730L
I1740
sL563084L
I518
sL1439629L
I878
sL1460951L
I1292
sL1423249L
I816
sL1439635L
I879
sL6829975L
I1902
sL6829977L
I1903
sL6829978L
I1904
sL6829980L
I1905
sL130714L
I71
sL6829986L
I1906
sL6829987L
I1907
sL6829988L
I1908
sL6829989L
I1909
sL989094L
I709
sL538536L
I486
sL6829994L
I1911
sL1128363L
I765
sL358316L
I152
sL6829997L
I1913
sL6829998L
I1914
sL6830000L
I1915
sL6830001L
I1916
sL1439669L
I880
sL6830006L
I1917
sL1439684L
I881
sL587719L
I554
sL358349L
I153
sL1439694L
I882
sL1439696L
I883
sL2062291L
I1616
sL1456084L
I1144
sL1439702L
I884
sL6830039L
I1918
sL1440222L
I920
sL6831781L
I2049
sL6830416L
I1958
sL6830051L
I1919
sL6830052L
I1920
sL6830053L
I1921
sL6830054L
I1922
sL1439719L
I886
sL522216L
I401
sL6830062L
I1924
sL169969L
I79
sL686069L
I659
sL1439735L
I887
sL1472505L
I1379
sL1441450L
I958
sL6830078L
I1927
sL645119L
I630
sL1439746L
I888
sL1396395L
I777
sL6830422L
I1959
sL1439753L
I889
sL6155L
I36
sL6830097L
I1929
sL6830101L
I1930
sL604192L
I573
sL1439783L
I890
sL1439785L
I891
sL1456170L
I1145
sL6830124L
I1932
sL6830126L
I1933
sL989231L
I710
sL1439799L
I892
sL358457L
I154
sL1439803L
I893
sL202816L
I95
sL1439809L
I894
sL1439811L
I895
sL1027768L
I721
sL6830167L
I1934
sL6830168L
I1935
sL6830169L
I1936
sL6830170L
I1937
sL1439838L
I896
sL1439841L
I897
sL2062434L
I1618
sL6830182L
I1940
sL473193L
I347
sL6830188L
I1941
sL6830189L
I1942
sL71791L
I60
sL6830194L
I1943
sL1439861L
I898
sL383096L
I245
sL227451L
I110
sL14464L
I40
sL1439883L
I899
sL1439889L
I900
sL1439890L
I901
sL637075L
I605
sL981142L
I705
sL1423519L
I817
sL1472674L
I1380
sL1415338L
I807
sL1439916L
I902
sL1472685L
I1381
sL1472689L
I1382
sL1472693L
I1383
sL6834548L
I2245
sL1472698L
I1384
sL1079484L
I758
sL1472701L
I1385
sL1439934L
I903
sL2103489L
I1640
sL989379L
I711
sL1472710L
I1386
sL6830279L
I1946
sL2002162L
I1598
sL1439947L
I904
sL456908L
I319
sL1456334L
I1147
sL2128084L
I1653
sL6830293L
I1947
sL334038L
I133
sL1415383L
I808
sL523983L
I419
sL1472732L
I1389
sL432352L
I293
sL1472737L
I1390
sL6834555L
I2249
sL1472744L
I1391
sL1472745L
I1392
sL637162L
I606
sL3668203L
I1722
sL1439980L
I905
sL1439982L
I906
sL1439983L
I907
sL571635L
I534
sL1472757L
I1393
sL1472762L
I1394
sL1472765L
I1395
sL1472766L
I1396
sL6831829L
I2060
sL628996L
I598
sL1440006L
I908
sL1440008L
I909
sL6830345L
I1949
sL1440010L
I910
sL6830350L
I1950
sL1472783L
I1398
sL6830353L
I1952
sL661778L
I635
sL6834563L
I2253
sL1472789L
I1399
sL1472795L
I1400
sL571682L
I535
sL1472804L
I1401
sL1456423L
I1148
sL891177L
I699
sL1472810L
I1403
sL1456519L
I1151
sL1440048L
I911
sL571697L
I536
sL6830386L
I1954
sL1472821L
I1404
sL1440055L
I912
sL1406004L
I796
sL6831782L
I2050
sL1440061L
I913
sL1456452L
I1149
sL6830406L
I1955
sL424263L
I287
sL6830408L
I1956
sL1456524L
I1152
sL1440077L
I914
sL6830415L
I1957
sL1472848L
I1405
sL1448275L
I1020
sL1472854L
I1406
sL6830423L
I1960
sL6830425L
I1961
sL1456475L
I1150
sL1472868L
I1407
sL1472869L
I1408
sL1472870L
I1409
sL1472874L
I1410
sL1440107L
I915
sL1472879L
I1411
sL1472880L
I1412
sL1472881L
I1413
sL1472884L
I1414
sL1440117L
I916
sL1440122L
I917
sL1472891L
I1415
sL1472893L
I1416
sL1472895L
I1417
sL973186L
I703
sL6831851L
I2068
sL1472900L
I1418
sL1415559L
I809
sL1472905L
I1419
sL6830475L
I1962
sL1440140L
I918
sL571791L
I537
sL6830481L
I1964
sL2139203L
I1657
sL6830486L
I1965
sL6830488L
I1966
sL1472921L
I1420
sL1472922L
I1421
sL519919L
I391
sL6830492L
I1967
sL571807L
I538
sL6830496L
I1968
sL1472930L
I1422
sL6830499L
I1969
sL6830500L
I1970
sL1440167L
I919
sL1472937L
I1424
sL358826L
I155
sL481707L
I358
sL1472940L
I1425
sL539056L
I487
sL399793L
I263
sL481714L
I359
sL539061L
I488
sL1456566L
I1153
sL1472951L
I1427
sL571834L
I539
sL1472957L
I1428
sL1472960L
I1429
sL2046405L
I1615
sL6830535L
I1971
sL6830537L
I1972
sL1472970L
I1430
sL571856L
I540
sL1472989L
I1431
sL637406L
I607
sL1472999L
I1432
sL6830569L
I1973
sL1440234L
I921
sL1440235L
I922
sL1473005L
I1433
sL170486L
I80
sL6830585L
I1974
sL539130L
I489
sL1055146L
I737
sL219646L
I107
sL604675L
I574
sL539141L
I490
sL604680L
I575
sL686604L
I660
sL1473039L
I1437
sL670224L
I642
sL1972754L
I1583
sL342548L
I134
sL6830614L
I1976
sL1473052L
I1439
sL358942L
I156
sL1473055L
I1440
sL2177568L
I1671
sL571937L
I541
sL3676707L
I1725
sL236068L
I111
sL6830629L
I1978
sL1055270L
I738
sL1473064L
I1442
sL1440298L
I923
sL6830635L
I1981
sL596527L
I564
sL6832602L
I2112
sL473651L
I348
sL2005565L
I1601
sL6511167L
I1750
sL1473089L
I1443
sL1473092L
I1444
sL1473102L
I1445
sL358994L
I157
sL1473113L
I1446
sL1473117L
I1447
sL1473118L
I1448
sL1473119L
I1449
sL6835609L
I2293
sL1456741L
I1154
sL6830697L
I1982
sL572011L
I542
sL1440369L
I924
sL1473141L
I1450
sL1473144L
I1451
sL1473146L
I1452
sL547452L
I496
sL1473149L
I1453
sL475140L
I349
sL1473151L
I1454
sL1473152L
I1455
sL1440385L
I925
sL1473154L
I1456
sL1473159L
I1457
sL1473160L
I1458
sL1473171L
I1459
sL1440406L
I926
sL6831897L
I2076
sL1473180L
I1460
sL170654L
I81
sL6830752L
I1984
sL1473185L
I1461
sL375459L
I227
sL6830758L
I1986
sL3177130L
I1690
sL1473198L
I1462
sL2030256L
I1610
sL1473204L
I1463
sL1473206L
I1464
sL1460682L
I1271
sL1473214L
I1465
sL1473218L
I1466
sL1473227L
I1467
sL1440472L
I927
sL1473246L
I1468
sL375522L
I228
sL522980L
I402
sL1440488L
I928
sL1440489L
I929
sL97003L
I63
sL3226354L
I1692
sL1456883L
I1155
sL1473271L
I1469
sL1071867L
I754
sL1473284L
I1471
sL1440517L
I930
sL482059L
I360
sL1473292L
I1472
sL1473302L
I1473
sL1456920L
I1156
sL1456928L
I1157
sL1473324L
I1474
sL1440557L
I931
sL1440558L
I932
sL6288788L
I1744
sL539445L
I491
sL6836020L
I2303
sL662330L
I636
sL1457973L
I1203
sL1471627L
I1368
sL547654L
I497
sL1141217L
I767
sL3312099L
I1697
sL1473364L
I1475
sL342869L
I135
sL1055580L
I740
sL6830942L
I1988
sL575973L
I548
sL1473376L
I1476
sL359265L
I158
sL1473381L
I1477
sL220006L
I108
sL1473384L
I1478
sL6830953L
I1991
sL6830954L
I1992
sL1457003L
I1158
sL6830957L
I1993
sL662382L
I637
sL6830961L
I1995
sL6831022L
I2001
sL6830964L
I1996
sL1055606L
I741
sL1473400L
I1479
sL1473403L
I1480
sL6830977L
I1997
sL1063810L
I746
sL2241686L
I1672
sL1440648L
I934
sL6830998L
I1998
sL1457050L
I1159
sL1457052L
I1160
sL277405L
I118
sL6831009L
I1999
sL623771L
I586
sL1457060L
I1161
sL637861L
I608
sL6831014L
I2000
sL1407911L
I797
sL572330L
I543
sL719790L
I692
sL6831023L
I2002
sL6831024L
I2003
sL6831077L
I2011
sL1440697L
I935
sL1440700L
I936
sL1462090L
I1326
sL5872575L
I1742
sL1407939L
I798
sL6831045L
I2006
sL6831046L
I2007
sL1457095L
I1163
sL1473480L
I1482
sL531402L
I454
sL1457102L
I1164
sL1448911L
I1021
sL1457105L
I1165
sL3627990L
I1718
sL162775L
I73
sL1440729L
I937
sL449500L
I313
sL1473018L
I1434
sL1113058L
I762
sL2001403L
I1593
sL6831076L
I2010
sL1473509L
I1484
sL556006L
I506
sL556007L
I507
sL6839479L
I2319
sL556010L
I508
sL556012L
I509
sL1407983L
I799
sL556018L
I510
sL1440755L
I938
sL449524L
I314
sL392181L
I250
sL1473528L
I1486
sL1027810L
I722
sL1473530L
I1488
sL1407998L
I800
sL1408002L
I801
sL1440772L
I939
sL359431L
I159
sL2063369L
I1620
sL556044L
I511
sL1457168L
I1166
sL1473553L
I1490
sL375827L
I229
sL197806L
I90
sL449559L
I315
sL556065L
I512
sL1457187L
I1168
sL1457190L
I1169
sL1473576L
I1491
sL1760299L
I1573
sL6833330L
I2163
sL556080L
I513
sL6831153L
I2013
sL1473589L
I1493
sL506934L
I372
sL6831169L
I2014
sL1457218L
I1170
sL1473605L
I1495
sL1473036L
I1436
sL556109L
I514
sL1408078L
I802
sL1457231L
I1171
sL613456L
I582
sL1473617L
I1496
sL6831186L
I2015
sL15445L
I41
sL1457238L
I1172
sL1473627L
I1497
sL556126L
I515
sL1121375L
I764
sL1457249L
I1173
sL1408099L
I803
sL556133L
I516
sL1473639L
I1499
sL6831209L
I2016
sL1440875L
I940
sL6831212L
I2017
sL6831215L
I2018
sL2137200L
I1655
sL6831219L
I2019
sL540079L
I493
sL6831225L
I2021
sL1473662L
I1500
sL6831232L
I2022
sL375938L
I230
sL6831235L
I2023
sL531588L
I455
sL1473670L
I1501
sL539783L
I492
sL703626L
I682
sL1457292L
I1174
sL6831249L
I2025
sL533699L
I478
sL6831253L
I2026
sL523414L
I403
sL6831256L
I2027
sL6831262L
I2028
sL1457313L
I1175
sL1473698L
I1502
sL408740L
I268
sL1457317L
I1176
sL1457326L
I1177
sL6831283L
I2029
sL1473717L
I1503
sL1457335L
I1178
sL531643L
I456
sL1473726L
I1504
sL1473730L
I1505
sL6831300L
I2030
sL6716613L
I1758
sL523464L
I404
sL6831308L
I2031
sL416975L
I285
sL1457361L
I1179
sL6831314L
I2032
sL687316L
I661
sL523477L
I405
sL1457373L
I1180
sL3456225L
I1707
sL1473062L
I1441
sL130279L
I69
sL1441004L
I941
sL6830632L
I1979
sL3669234L
I1723
sL1441011L
I942
sL3587316L
I1714
sL6839542L
I2321
sL1441018L
I943
sL6839547L
I2322
sL6830634L
I1980
sL1473801L
I1507
sL523530L
I407
sL1473804L
I1508
sL1473805L
I1509
sL1408275L
I804
sL6839572L
I2323
sL441623L
I303
sL1441048L
I944
sL1457437L
I1181
sL1441056L
I945
sL1457453L
I1182
sL6831407L
I2033
sL523568L
I408
sL1441075L
I946
sL6831413L
I2034
sL1457467L
I1183
sL408895L
I269
sL6830178L
I1939
sL1441094L
I947
sL1441095L
I948
sL1457483L
I1184
sL6831436L
I2035
sL204112L
I96
sL2104669L
I1641
sL6839646L
I2326
sL1187171L
I770
sL703850L
I683
sL359789L
I160
sL6839662L
I2327
sL6831475L
I2036
sL6831476L
I2037
sL1441142L
I949
sL1457527L
I1185
sL523640L
I410
sL2022777L
I1608
sL1457531L
I1186
sL441729L
I304
sL6831491L
I2038
sL1457541L
I1187
sL2559895L
I1676
sL6831508L
I2039
sL1473941L
I1513
sL1441174L
I950
sL523671L
I411
sL1457561L
I1188
sL163229L
I74
sL1441182L
I951
sL204192L
I97
sL6831521L
I2040
sL6831522L
I2041
sL1457571L
I1189
sL6831527L
I2042
sL1482157L
I1565
sL1457583L
I1190
sL1457588L
I1191
sL4259256L
I1730
sL1473985L
I1514
sL1457185L
I1167
sL6831558L
I2043
sL1473992L
I1515
sL630218L
I600
sL638417L
I609
sL1457625L
I1192
sL679845L
I653
sL1441251L
I953
sL1474021L
I1516
sL1465835L
I1335
sL1465836L
I1336
sL1465838L
I1337
sL1457663L
I1193
sL523776L
I413
sL523782L
I414
sL3317258L
I1698
sL6831627L
I2044
sL1441292L
I954
sL1474061L
I1517
sL3317263L
I1699
sL1474064L
I1518
sL1457682L
I1194
sL523797L
I415
sL1441302L
I955
sL1465881L
I1338
sL1465884L
I1339
sL523805L
I416
sL6831646L
I2045
sL6833413L
I2165
sL1465888L
I1340
sL900642L
I700
sL2006568L
I1603
sL1441714L
I962
sL6834781L
I2261
sL532021L
I457
sL1474102L
I1519
sL1465911L
I1341
sL532026L
I458
sL1465915L
I1342
sL6831679L
I2046
sL6834551L
I2247
sL990788L
I712
sL1465926L
I1343
sL1457741L
I1195
sL573006L
I544
sL6833421L
I2169
sL1474128L
I1520
sL663122L
I638
sL1457751L
I1196
sL6831704L
I2047
sL1441369L
I956
sL130654L
I70
sL1441377L
I957
sL2104935L
I1642
sL523890L
I417
sL532084L
I459
sL523896L
I418
sL1474169L
I1523
sL1457787L
I1197
sL1465987L
I1344
sL6741648L
I1759
sL6831764L
I2048
sL532120L
I460
sL1457818L
I1198
sL1474207L
I1524
sL1097381L
I759
sL425638L
I288
sL360105L
I161
sL1457834L
I1199
sL1474222L
I1525
sL6831791L
I2051
sL6831792L
I2052
sL1474226L
I1526
sL1474230L
I1527
sL6831800L
I2053
sL376508L
I231
sL6831807L
I2054
sL6831808L
I2055
sL6831809L
I2056
sL6831817L
I2057
sL6831822L
I2058
sL597711L
I565
sL1457872L
I1200
sL6831825L
I2059
sL573390L
I545
sL6831830L
I2061
sL1457882L
I1201
sL2105051L
I1643
sL597726L
I566
sL540383L
I494
sL532193L
I461
sL6831842L
I2064
sL6831844L
I2065
sL6831847L
I2066
sL6831848L
I2067
sL1441515L
I959
sL6831853L
I2069
sL1193687L
I772
sL597747L
I567
sL6834557L
I2250
sL1171412L
I768
sL6832153L
I2090
sL6831870L
I2070
sL433920L
I294
sL1457926L
I1202
sL1055361L
I739
sL6831883L
I2072
sL6831885L
I2073
sL1048334L
I731
sL204560L
I98
sL6831890L
I2074
sL360213L
I162
sL360217L
I163
sL6831898L
I2077
sL5867817L
I1741
sL3202848L
I1691
sL6833456L
I2172
sL1474339L
I1529
sL6831910L
I2078
sL1466165L
I1345
sL1059465L
I743
sL1457977L
I1204
sL532286L
I462
sL1457985L
I1205
sL1457994L
I1206
sL1457997L
I1207
sL1458005L
I1208
sL6833465L
I2175
sL6831960L
I2079
sL5873503L
I1743
sL1474404L
I1530
sL1441641L
I960
sL1458026L
I1209
sL6831981L
I2080
sL360303L
I164
sL507761L
I373
sL1458036L
I1210
sL6833470L
I2177
sL6291322L
I1746
sL360316L
I165
sL507775L
I374
sL1441664L
I961
sL6832001L
I2081
sL712589L
I687
sL327569L
I124
sL1458075L
I1211
sL1449893L
I1022
sL2031536L
I1611
sL1449905L
I1023
sL1458098L
I1212
sL6830750L
I1983
sL1458102L
I1213
sL442301L
I305
sL1474499L
I1531
sL532421L
I463
sL1474503L
I1532
sL6832074L
I2082
sL2523084L
I1674
sL532429L
I464
sL1466318L
I1346
sL1458132L
I1214
sL1449945L
I1024
sL1466332L
I1347
sL1449957L
I1025
sL524262L
I420
sL6840295L
I2329
sL1449962L
I1026
sL1474540L
I1533
sL6832113L
I2084
sL1449972L
I1027
sL1064950L
I747
sL6830762L
I1987
sL1048575L
I732
s.