(dp1
I0
L6L
sI1
L7L
sI2
L10L
sI3
L11L
sI4
L12L
sI5
L15L
sI6
L16L
sI7
L17L
sI8
L18L
sI9
L19L
sI10
L20L
sI11
L21L
sI12
L22L
sI13
L24L
sI14
L25L
sI15
L26L
sI16
L27L
sI17
L29L
sI18
L68L
sI19
L69L
sI20
L77L
sI21
L87L
sI22
L3421L
sI23
L3621L
sI24
L3650L
sI25
L3680L
sI26
L3758L
sI27
L3763L
sI28
L3781L
sI29
L4004L
sI30
L4106L
sI31
L4237L
sI32
L4536L
sI33
L4674L
sI34
L5193L
sI35
L6024L
sI36
L6155L
sI37
L12171L
sI38
L12836L
sI39
L13346L
sI40
L14464L
sI41
L15445L
sI42
L19316L
sI43
L25600L
sI44
L25734L
sI45
L25755L
sI46
L29070L
sI47
L30009L
sI48
L33539L
sI49
L36670L
sI50
L37151L
sI51
L41544L
sI52
L49658L
sI53
L49706L
sI54
L49719L
sI55
L50434L
sI56
L50905L
sI57
L59473L
sI58
L65799L
sI59
L70275L
sI60
L71791L
sI61
L83487L
sI62
L91988L
sI63
L97003L
sI64
L100486L
sI65
L107850L
sI66
L115094L
sI67
L115148L
sI68
L115279L
sI69
L130279L
sI70
L130654L
sI71
L130714L
sI72
L161450L
sI73
L162775L
sI74
L163229L
sI75
L166229L
sI76
L167468L
sI77
L168248L
sI78
L168535L
sI79
L169969L
sI80
L170486L
sI81
L170654L
sI82
L172419L
sI83
L172892L
sI84
L174538L
sI85
L182114L
sI86
L189451L
sI87
L191909L
sI88
L192394L
sI89
L193588L
sI90
L197806L
sI91
L198479L
sI92
L200050L
sI93
L200089L
sI94
L200184L
sI95
L202816L
sI96
L204112L
sI97
L204192L
sI98
L204560L
sI99
L205201L
sI100
L209471L
sI101
L210403L
sI102
L215543L
sI103
L217121L
sI104
L217184L
sI105
L217349L
sI106
L218414L
sI107
L219646L
sI108
L220006L
sI109
L225997L
sI110
L227451L
sI111
L236068L
sI112
L240871L
sI113
L241671L
sI114
L241695L
sI115
L249757L
sI116
L251536L
sI117
L255634L
sI118
L277405L
sI119
L289854L
sI120
L302620L
sI121
L306404L
sI122
L320060L
sI123
L324221L
sI124
L327569L
sI125
L328724L
sI126
L329449L
sI127
L329562L
sI128
L330912L
sI129
L332055L
sI130
L332780L
sI131
L332965L
sI132
L333130L
sI133
L334038L
sI134
L342548L
sI135
L342869L
sI136
L345898L
sI137
L346753L
sI138
L347040L
sI139
L355170L
sI140
L355458L
sI141
L355912L
sI142
L355978L
sI143
L356240L
sI144
L356370L
sI145
L356609L
sI146
L356619L
sI147
L356759L
sI148
L357338L
sI149
L357682L
sI150
L357978L
sI151
L358145L
sI152
L358316L
sI153
L358349L
sI154
L358457L
sI155
L358826L
sI156
L358942L
sI157
L358994L
sI158
L359265L
sI159
L359431L
sI160
L359789L
sI161
L360105L
sI162
L360213L
sI163
L360217L
sI164
L360303L
sI165
L360316L
sI166
L360452L
sI167
L360565L
sI168
L360570L
sI169
L360655L
sI170
L360682L
sI171
L360727L
sI172
L360749L
sI173
L360753L
sI174
L360937L
sI175
L361050L
sI176
L361440L
sI177
L361486L
sI178
L361911L
sI179
L362335L
sI180
L362695L
sI181
L363274L
sI182
L363296L
sI183
L363308L
sI184
L363337L
sI185
L363340L
sI186
L363511L
sI187
L363531L
sI188
L363635L
sI189
L363724L
sI190
L363730L
sI191
L363752L
sI192
L363875L
sI193
L363878L
sI194
L363881L
sI195
L363958L
sI196
L363989L
sI197
L364077L
sI198
L364216L
sI199
L364253L
sI200
L364257L
sI201
L364289L
sI202
L364403L
sI203
L364431L
sI204
L364490L
sI205
L364499L
sI206
L364607L
sI207
L364628L
sI208
L364687L
sI209
L364856L
sI210
L364940L
sI211
L364949L
sI212
L364997L
sI213
L365381L
sI214
L368993L
sI215
L370058L
sI216
L372082L
sI217
L372756L
sI218
L373232L
sI219
L373275L
sI220
L373539L
sI221
L373645L
sI222
L373944L
sI223
L374116L
sI224
L374134L
sI225
L374325L
sI226
L374389L
sI227
L375459L
sI228
L375522L
sI229
L375827L
sI230
L375938L
sI231
L376508L
sI232
L378227L
sI233
L378892L
sI234
L379387L
sI235
L379791L
sI236
L380581L
sI237
L380927L
sI238
L381298L
sI239
L381774L
sI240
L382106L
sI241
L382340L
sI242
L382439L
sI243
L382582L
sI244
L382854L
sI245
L383096L
sI246
L387721L
sI247
L389120L
sI248
L389477L
sI249
L390732L
sI250
L392181L
sI251
L393275L
sI252
L393327L
sI253
L393697L
sI254
L394037L
sI255
L394297L
sI256
L394544L
sI257
L394566L
sI258
L394985L
sI259
L395638L
sI260
L395702L
sI261
L396321L
sI262
L398389L
sI263
L399793L
sI264
L401428L
sI265
L402150L
sI266
L403005L
sI267
L403074L
sI268
L408740L
sI269
L408895L
sI270
L408965L
sI271
L409911L
sI272
L411323L
sI273
L411893L
sI274
L413879L
sI275
L414068L
sI276
L414118L
sI277
L414274L
sI278
L414469L
sI279
L414528L
sI280
L414858L
sI281
L415024L
sI282
L415025L
sI283
L415035L
sI284
L415504L
sI285
L416975L
sI286
L418839L
sI287
L424263L
sI288
L425638L
sI289
L426077L
sI290
L426439L
sI291
L426507L
sI292
L426918L
sI293
L432352L
sI294
L433920L
sI295
L434892L
sI296
L434930L
sI297
L436358L
sI298
L436364L
sI299
L437089L
sI300
L438122L
sI301
L439112L
sI302
L439748L
sI303
L441623L
sI304
L441729L
sI305
L442301L
sI306
L443316L
sI307
L444580L
sI308
L445985L
sI309
L446263L
sI310
L446280L
sI311
L447199L
sI312
L447385L
sI313
L449500L
sI314
L449524L
sI315
L449559L
sI316
L451965L
sI317
L455587L
sI318
L456520L
sI319
L456908L
sI320
L457646L
sI321
L457698L
sI322
L459226L
sI323
L461333L
sI324
L461735L
sI325
L463361L
sI326
L467876L
sI327
L467891L
sI328
L467905L
sI329
L467914L
sI330
L468054L
sI331
L468068L
sI332
L468099L
sI333
L468129L
sI334
L468142L
sI335
L468208L
sI336
L468286L
sI337
L468444L
sI338
L468512L
sI339
L468681L
sI340
L468693L
sI341
L468859L
sI342
L468939L
sI343
L468978L
sI344
L469057L
sI345
L469122L
sI346
L469468L
sI347
L473193L
sI348
L473651L
sI349
L475140L
sI350
L475153L
sI351
L476292L
sI352
L476364L
sI353
L476517L
sI354
L476832L
sI355
L477861L
sI356
L478400L
sI357
L480015L
sI358
L481707L
sI359
L481714L
sI360
L482059L
sI361
L482339L
sI362
L496105L
sI363
L496570L
sI364
L500810L
sI365
L500839L
sI366
L500944L
sI367
L501034L
sI368
L501795L
sI369
L502120L
sI370
L502650L
sI371
L503168L
sI372
L506934L
sI373
L507761L
sI374
L507775L
sI375
L507984L
sI376
L516444L
sI377
L516458L
sI378
L516519L
sI379
L516608L
sI380
L516681L
sI381
L516698L
sI382
L516699L
sI383
L517009L
sI384
L517821L
sI385
L518198L
sI386
L519220L
sI387
L519681L
sI388
L519700L
sI389
L519713L
sI390
L519716L
sI391
L519919L
sI392
L520057L
sI393
L520097L
sI394
L520117L
sI395
L521255L
sI396
L521286L
sI397
L521503L
sI398
L522064L
sI399
L522117L
sI400
L522129L
sI401
L522216L
sI402
L522980L
sI403
L523414L
sI404
L523464L
sI405
L523477L
sI406
L523500L
sI407
L523530L
sI408
L523568L
sI409
L523639L
sI410
L523640L
sI411
L523671L
sI412
L523747L
sI413
L523776L
sI414
L523782L
sI415
L523797L
sI416
L523805L
sI417
L523890L
sI418
L523896L
sI419
L523983L
sI420
L524262L
sI421
L524389L
sI422
L524398L
sI423
L524424L
sI424
L524448L
sI425
L524541L
sI426
L525008L
sI427
L525046L
sI428
L525625L
sI429
L525705L
sI430
L526033L
sI431
L527402L
sI432
L527411L
sI433
L527421L
sI434
L527469L
sI435
L527483L
sI436
L527509L
sI437
L527525L
sI438
L527527L
sI439
L527529L
sI440
L527535L
sI441
L527536L
sI442
L527538L
sI443
L527560L
sI444
L527943L
sI445
L528674L
sI446
L529354L
sI447
L529476L
sI448
L529897L
sI449
L529965L
sI450
L530000L
sI451
L530135L
sI452
L530212L
sI453
L530257L
sI454
L531402L
sI455
L531588L
sI456
L531643L
sI457
L532021L
sI458
L532026L
sI459
L532084L
sI460
L532120L
sI461
L532193L
sI462
L532286L
sI463
L532421L
sI464
L532429L
sI465
L532436L
sI466
L532540L
sI467
L532541L
sI468
L532650L
sI469
L533018L
sI470
L533050L
sI471
L533086L
sI472
L533233L
sI473
L533321L
sI474
L533366L
sI475
L533379L
sI476
L533384L
sI477
L533581L
sI478
L533699L
sI479
L533748L
sI480
L533872L
sI481
L535255L
sI482
L536087L
sI483
L536100L
sI484
L536195L
sI485
L537763L
sI486
L538536L
sI487
L539056L
sI488
L539061L
sI489
L539130L
sI490
L539141L
sI491
L539445L
sI492
L539783L
sI493
L540079L
sI494
L540383L
sI495
L544249L
sI496
L547452L
sI497
L547654L
sI498
L549655L
sI499
L550126L
sI500
L550135L
sI501
L550255L
sI502
L550326L
sI503
L550341L
sI504
L550525L
sI505
L550884L
sI506
L556006L
sI507
L556007L
sI508
L556010L
sI509
L556012L
sI510
L556018L
sI511
L556044L
sI512
L556065L
sI513
L556080L
sI514
L556109L
sI515
L556126L
sI516
L556133L
sI517
L559160L
sI518
L563084L
sI519
L567028L
sI520
L567050L
sI521
L567188L
sI522
L567281L
sI523
L567292L
sI524
L567354L
sI525
L567556L
sI526
L567645L
sI527
L567781L
sI528
L568791L
sI529
L569021L
sI530
L569350L
sI531
L569384L
sI532
L569738L
sI533
L569955L
sI534
L571635L
sI535
L571682L
sI536
L571697L
sI537
L571791L
sI538
L571807L
sI539
L571834L
sI540
L571856L
sI541
L571937L
sI542
L572011L
sI543
L572330L
sI544
L573006L
sI545
L573390L
sI546
L574551L
sI547
L575405L
sI548
L575973L
sI549
L585548L
sI550
L585888L
sI551
L586742L
sI552
L586744L
sI553
L586944L
sI554
L587719L
sI555
L589995L
sI556
L590005L
sI557
L590071L
sI558
L590101L
sI559
L590174L
sI560
L590193L
sI561
L590595L
sI562
L591001L
sI563
L594193L
sI564
L596527L
sI565
L597711L
sI566
L597726L
sI567
L597747L
sI568
L598123L
sI569
L599105L
sI570
L602142L
sI571
L603109L
sI572
L603590L
sI573
L604192L
sI574
L604675L
sI575
L604680L
sI576
L611623L
sI577
L611733L
sI578
L611743L
sI579
L611861L
sI580
L612107L
sI581
L612114L
sI582
L613456L
sI583
L614768L
sI584
L616353L
sI585
L616601L
sI586
L623771L
sI587
L625324L
sI588
L625347L
sI589
L626204L
sI590
L626319L
sI591
L626578L
sI592
L626773L
sI593
L626835L
sI594
L627032L
sI595
L627514L
sI596
L627685L
sI597
L628313L
sI598
L628996L
sI599
L629892L
sI600
L630218L
sI601
L631130L
sI602
L632254L
sI603
L632938L
sI604
L635967L
sI605
L637075L
sI606
L637162L
sI607
L637406L
sI608
L637861L
sI609
L638417L
sI610
L639143L
sI611
L639496L
sI612
L639788L
sI613
L640048L
sI614
L640067L
sI615
L640651L
sI616
L640763L
sI617
L640773L
sI618
L640929L
sI619
L642477L
sI620
L642578L
sI621
L642870L
sI622
L642967L
sI623
L643208L
sI624
L643238L
sI625
L643341L
sI626
L643750L
sI627
L643978L
sI628
L644469L
sI629
L644810L
sI630
L645119L
sI631
L655681L
sI632
L656005L
sI633
L661228L
sI634
L661292L
sI635
L661778L
sI636
L662330L
sI637
L662382L
sI638
L663122L
sI639
L663559L
sI640
L663832L
sI641
L663950L
sI642
L670224L
sI643
L671747L
sI644
L671815L
sI645
L671823L
sI646
L672674L
sI647
L673511L
sI648
L673807L
sI649
L674263L
sI650
L674597L
sI651
L674697L
sI652
L676101L
sI653
L679845L
sI654
L679983L
sI655
L680083L
sI656
L680190L
sI657
L680930L
sI658
L685389L
sI659
L686069L
sI660
L686604L
sI661
L687316L
sI662
L689039L
sI663
L690317L
sI664
L690319L
sI665
L690567L
sI666
L690906L
sI667
L690909L
sI668
L691632L
sI669
L692100L
sI670
L692643L
sI671
L692744L
sI672
L693130L
sI673
L693193L
sI674
L693313L
sI675
L693652L
sI676
L693678L
sI677
L698321L
sI678
L698881L
sI679
L700081L
sI680
L701316L
sI681
L701461L
sI682
L703626L
sI683
L703850L
sI684
L705007L
sI685
L705211L
sI686
L710449L
sI687
L712589L
sI688
L713555L
sI689
L715360L
sI690
L716855L
sI691
L717770L
sI692
L719790L
sI693
L723430L
sI694
L723529L
sI695
L724541L
sI696
L725676L
sI697
L731832L
sI698
L889671L
sI699
L891177L
sI700
L900642L
sI701
L914891L
sI702
L958923L
sI703
L973186L
sI704
L975664L
sI705
L981142L
sI706
L983519L
sI707
L987985L
sI708
L988772L
sI709
L989094L
sI710
L989231L
sI711
L989379L
sI712
L990788L
sI713
L995324L
sI714
L996065L
sI715
L1004406L
sI716
L1012882L
sI717
L1012950L
sI718
L1012960L
sI719
L1017027L
sI720
L1018934L
sI721
L1027768L
sI722
L1027810L
sI723
L1033260L
sI724
L1033585L
sI725
L1033763L
sI726
L1034687L
sI727
L1035494L
sI728
L1040712L
sI729
L1041719L
sI730
L1043441L
sI731
L1048334L
sI732
L1048575L
sI733
L1050697L
sI734
L1053120L
sI735
L1053370L
sI736
L1054368L
sI737
L1055146L
sI738
L1055270L
sI739
L1055361L
sI740
L1055580L
sI741
L1055606L
sI742
L1058616L
sI743
L1059465L
sI744
L1059543L
sI745
L1059544L
sI746
L1063810L
sI747
L1064950L
sI748
L1065054L
sI749
L1066046L
sI750
L1067435L
sI751
L1067600L
sI752
L1068774L
sI753
L1069763L
sI754
L1071867L
sI755
L1078652L
sI756
L1078947L
sI757
L1079099L
sI758
L1079484L
sI759
L1097381L
sI760
L1098135L
sI761
L1098849L
sI762
L1113058L
sI763
L1115883L
sI764
L1121375L
sI765
L1128363L
sI766
L1133287L
sI767
L1141217L
sI768
L1171412L
sI769
L1173816L
sI770
L1187171L
sI771
L1191529L
sI772
L1193687L
sI773
L1271376L
sI774
L1320401L
sI775
L1396384L
sI776
L1396385L
sI777
L1396395L
sI778
L1396399L
sI779
L1396436L
sI780
L1396441L
sI781
L1396450L
sI782
L1396510L
sI783
L1396554L
sI784
L1397516L
sI785
L1403978L
sI786
L1403998L
sI787
L1404092L
sI788
L1404093L
sI789
L1404099L
sI790
L1404146L
sI791
L1404171L
sI792
L1404247L
sI793
L1404549L
sI794
L1404578L
sI795
L1404684L
sI796
L1406004L
sI797
L1407911L
sI798
L1407939L
sI799
L1407983L
sI800
L1407998L
sI801
L1408002L
sI802
L1408078L
sI803
L1408099L
sI804
L1408275L
sI805
L1411588L
sI806
L1411623L
sI807
L1415338L
sI808
L1415383L
sI809
L1415559L
sI810
L1419277L
sI811
L1419358L
sI812
L1423115L
sI813
L1423121L
sI814
L1423131L
sI815
L1423171L
sI816
L1423249L
sI817
L1423519L
sI818
L1438230L
sI819
L1438243L
sI820
L1438244L
sI821
L1438249L
sI822
L1438270L
sI823
L1438280L
sI824
L1438291L
sI825
L1438308L
sI826
L1438311L
sI827
L1438322L
sI828
L1438323L
sI829
L1438324L
sI830
L1438333L
sI831
L1438353L
sI832
L1438365L
sI833
L1438370L
sI834
L1438381L
sI835
L1438383L
sI836
L1438388L
sI837
L1438394L
sI838
L1438458L
sI839
L1438482L
sI840
L1438495L
sI841
L1438521L
sI842
L1438536L
sI843
L1438592L
sI844
L1438597L
sI845
L1438619L
sI846
L1438631L
sI847
L1438659L
sI848
L1438700L
sI849
L1438724L
sI850
L1438813L
sI851
L1438820L
sI852
L1438842L
sI853
L1438870L
sI854
L1438947L
sI855
L1438950L
sI856
L1439173L
sI857
L1439218L
sI858
L1439236L
sI859
L1439325L
sI860
L1439413L
sI861
L1439426L
sI862
L1439442L
sI863
L1439447L
sI864
L1439457L
sI865
L1439458L
sI866
L1439467L
sI867
L1439468L
sI868
L1439478L
sI869
L1439491L
sI870
L1439535L
sI871
L1439544L
sI872
L1439549L
sI873
L1439551L
sI874
L1439555L
sI875
L1439576L
sI876
L1439597L
sI877
L1439614L
sI878
L1439629L
sI879
L1439635L
sI880
L1439669L
sI881
L1439684L
sI882
L1439694L
sI883
L1439696L
sI884
L1439702L
sI885
L1439704L
sI886
L1439719L
sI887
L1439735L
sI888
L1439746L
sI889
L1439753L
sI890
L1439783L
sI891
L1439785L
sI892
L1439799L
sI893
L1439803L
sI894
L1439809L
sI895
L1439811L
sI896
L1439838L
sI897
L1439841L
sI898
L1439861L
sI899
L1439883L
sI900
L1439889L
sI901
L1439890L
sI902
L1439916L
sI903
L1439934L
sI904
L1439947L
sI905
L1439980L
sI906
L1439982L
sI907
L1439983L
sI908
L1440006L
sI909
L1440008L
sI910
L1440010L
sI911
L1440048L
sI912
L1440055L
sI913
L1440061L
sI914
L1440077L
sI915
L1440107L
sI916
L1440117L
sI917
L1440122L
sI918
L1440140L
sI919
L1440167L
sI920
L1440222L
sI921
L1440234L
sI922
L1440235L
sI923
L1440298L
sI924
L1440369L
sI925
L1440385L
sI926
L1440406L
sI927
L1440472L
sI928
L1440488L
sI929
L1440489L
sI930
L1440517L
sI931
L1440557L
sI932
L1440558L
sI933
L1440565L
sI934
L1440648L
sI935
L1440697L
sI936
L1440700L
sI937
L1440729L
sI938
L1440755L
sI939
L1440772L
sI940
L1440875L
sI941
L1441004L
sI942
L1441011L
sI943
L1441018L
sI944
L1441048L
sI945
L1441056L
sI946
L1441075L
sI947
L1441094L
sI948
L1441095L
sI949
L1441142L
sI950
L1441174L
sI951
L1441182L
sI952
L1441204L
sI953
L1441251L
sI954
L1441292L
sI955
L1441302L
sI956
L1441369L
sI957
L1441377L
sI958
L1441450L
sI959
L1441515L
sI960
L1441641L
sI961
L1441664L
sI962
L1441714L
sI963
L1441811L
sI964
L1441817L
sI965
L1441838L
sI966
L1441885L
sI967
L1441966L
sI968
L1442037L
sI969
L1442169L
sI970
L1442205L
sI971
L1442266L
sI972
L1442960L
sI973
L1444280L
sI974
L1446060L
sI975
L1446061L
sI976
L1446062L
sI977
L1446073L
sI978
L1446078L
sI979
L1446088L
sI980
L1446094L
sI981
L1446101L
sI982
L1446104L
sI983
L1446142L
sI984
L1446156L
sI985
L1446159L
sI986
L1446167L
sI987
L1446201L
sI988
L1446217L
sI989
L1446219L
sI990
L1446223L
sI991
L1446228L
sI992
L1446249L
sI993
L1446260L
sI994
L1446273L
sI995
L1446274L
sI996
L1446278L
sI997
L1446294L
sI998
L1446299L
sI999
L1446309L
sI1000
L1446311L
sI1001
L1446326L
sI1002
L1446341L
sI1003
L1446352L
sI1004
L1446353L
sI1005
L1446354L
sI1006
L1446369L
sI1007
L1446396L
sI1008
L1446422L
sI1009
L1446441L
sI1010
L1446503L
sI1011
L1446533L
sI1012
L1446599L
sI1013
L1446729L
sI1014
L1446770L
sI1015
L1446823L
sI1016
L1446939L
sI1017
L1446971L
sI1018
L1447073L
sI1019
L1447945L
sI1020
L1448275L
sI1021
L1448911L
sI1022
L1449893L
sI1023
L1449905L
sI1024
L1449945L
sI1025
L1449957L
sI1026
L1449962L
sI1027
L1449972L
sI1028
L1449996L
sI1029
L1449999L
sI1030
L1450025L
sI1031
L1450043L
sI1032
L1450086L
sI1033
L1450089L
sI1034
L1450096L
sI1035
L1450111L
sI1036
L1450137L
sI1037
L1450152L
sI1038
L1450181L
sI1039
L1450249L
sI1040
L1450260L
sI1041
L1450488L
sI1042
L1450576L
sI1043
L1451473L
sI1044
L1451577L
sI1045
L1451952L
sI1046
L1452120L
sI1047
L1452454L
sI1048
L1453049L
sI1049
L1453091L
sI1050
L1453170L
sI1051
L1453210L
sI1052
L1453228L
sI1053
L1453232L
sI1054
L1453235L
sI1055
L1453292L
sI1056
L1453295L
sI1057
L1453314L
sI1058
L1453319L
sI1059
L1453348L
sI1060
L1453354L
sI1061
L1453360L
sI1062
L1453363L
sI1063
L1453432L
sI1064
L1453446L
sI1065
L1453455L
sI1066
L1453463L
sI1067
L1453465L
sI1068
L1453471L
sI1069
L1453481L
sI1070
L1453513L
sI1071
L1453519L
sI1072
L1453534L
sI1073
L1453539L
sI1074
L1453561L
sI1075
L1453562L
sI1076
L1453587L
sI1077
L1453588L
sI1078
L1453591L
sI1079
L1453599L
sI1080
L1453604L
sI1081
L1453655L
sI1082
L1453707L
sI1083
L1453714L
sI1084
L1453716L
sI1085
L1453739L
sI1086
L1453779L
sI1087
L1453835L
sI1088
L1453852L
sI1089
L1453862L
sI1090
L1453866L
sI1091
L1453869L
sI1092
L1453903L
sI1093
L1453923L
sI1094
L1453973L
sI1095
L1454016L
sI1096
L1454021L
sI1097
L1454066L
sI1098
L1454072L
sI1099
L1454149L
sI1100
L1454165L
sI1101
L1454220L
sI1102
L1454256L
sI1103
L1454275L
sI1104
L1454280L
sI1105
L1454284L
sI1106
L1454309L
sI1107
L1454329L
sI1108
L1454360L
sI1109
L1454361L
sI1110
L1454403L
sI1111
L1454441L
sI1112
L1454483L
sI1113
L1454507L
sI1114
L1454526L
sI1115
L1454527L
sI1116
L1454569L
sI1117
L1454669L
sI1118
L1454677L
sI1119
L1454696L
sI1120
L1454823L
sI1121
L1454835L
sI1122
L1454845L
sI1123
L1454948L
sI1124
L1454961L
sI1125
L1455087L
sI1126
L1455114L
sI1127
L1455117L
sI1128
L1455176L
sI1129
L1455339L
sI1130
L1455398L
sI1131
L1455525L
sI1132
L1455599L
sI1133
L1455668L
sI1134
L1455670L
sI1135
L1455733L
sI1136
L1455777L
sI1137
L1455828L
sI1138
L1455845L
sI1139
L1455850L
sI1140
L1455853L
sI1141
L1455855L
sI1142
L1455907L
sI1143
L1455913L
sI1144
L1456084L
sI1145
L1456170L
sI1146
L1456267L
sI1147
L1456334L
sI1148
L1456423L
sI1149
L1456452L
sI1150
L1456475L
sI1151
L1456519L
sI1152
L1456524L
sI1153
L1456566L
sI1154
L1456741L
sI1155
L1456883L
sI1156
L1456920L
sI1157
L1456928L
sI1158
L1457003L
sI1159
L1457050L
sI1160
L1457052L
sI1161
L1457060L
sI1162
L1457070L
sI1163
L1457095L
sI1164
L1457102L
sI1165
L1457105L
sI1166
L1457168L
sI1167
L1457185L
sI1168
L1457187L
sI1169
L1457190L
sI1170
L1457218L
sI1171
L1457231L
sI1172
L1457238L
sI1173
L1457249L
sI1174
L1457292L
sI1175
L1457313L
sI1176
L1457317L
sI1177
L1457326L
sI1178
L1457335L
sI1179
L1457361L
sI1180
L1457373L
sI1181
L1457437L
sI1182
L1457453L
sI1183
L1457467L
sI1184
L1457483L
sI1185
L1457527L
sI1186
L1457531L
sI1187
L1457541L
sI1188
L1457561L
sI1189
L1457571L
sI1190
L1457583L
sI1191
L1457588L
sI1192
L1457625L
sI1193
L1457663L
sI1194
L1457682L
sI1195
L1457741L
sI1196
L1457751L
sI1197
L1457787L
sI1198
L1457818L
sI1199
L1457834L
sI1200
L1457872L
sI1201
L1457882L
sI1202
L1457926L
sI1203
L1457973L
sI1204
L1457977L
sI1205
L1457985L
sI1206
L1457994L
sI1207
L1457997L
sI1208
L1458005L
sI1209
L1458026L
sI1210
L1458036L
sI1211
L1458075L
sI1212
L1458098L
sI1213
L1458102L
sI1214
L1458132L
sI1215
L1458181L
sI1216
L1458186L
sI1217
L1458194L
sI1218
L1458219L
sI1219
L1458300L
sI1220
L1458311L
sI1221
L1458315L
sI1222
L1458334L
sI1223
L1458338L
sI1224
L1458374L
sI1225
L1458410L
sI1226
L1458445L
sI1227
L1458505L
sI1228
L1458508L
sI1229
L1458528L
sI1230
L1458529L
sI1231
L1458577L
sI1232
L1458747L
sI1233
L1458948L
sI1234
L1458975L
sI1235
L1459041L
sI1236
L1459101L
sI1237
L1459590L
sI1238
L1459735L
sI1239
L1459776L
sI1240
L1459880L
sI1241
L1459892L
sI1242
L1459916L
sI1243
L1459922L
sI1244
L1459993L
sI1245
L1460000L
sI1246
L1460062L
sI1247
L1460078L
sI1248
L1460082L
sI1249
L1460309L
sI1250
L1460465L
sI1251
L1460484L
sI1252
L1460487L
sI1253
L1460489L
sI1254
L1460499L
sI1255
L1460511L
sI1256
L1460512L
sI1257
L1460521L
sI1258
L1460533L
sI1259
L1460549L
sI1260
L1460554L
sI1261
L1460576L
sI1262
L1460603L
sI1263
L1460605L
sI1264
L1460611L
sI1265
L1460621L
sI1266
L1460631L
sI1267
L1460639L
sI1268
L1460657L
sI1269
L1460666L
sI1270
L1460676L
sI1271
L1460682L
sI1272
L1460686L
sI1273
L1460687L
sI1274
L1460690L
sI1275
L1460699L
sI1276
L1460705L
sI1277
L1460714L
sI1278
L1460752L
sI1279
L1460795L
sI1280
L1460804L
sI1281
L1460810L
sI1282
L1460829L
sI1283
L1460880L
sI1284
L1460886L
sI1285
L1460890L
sI1286
L1460893L
sI1287
L1460914L
sI1288
L1460923L
sI1289
L1460926L
sI1290
L1460938L
sI1291
L1460941L
sI1292
L1460951L
sI1293
L1460953L
sI1294
L1460973L
sI1295
L1460995L
sI1296
L1460999L
sI1297
L1461048L
sI1298
L1461071L
sI1299
L1461077L
sI1300
L1461118L
sI1301
L1461125L
sI1302
L1461133L
sI1303
L1461169L
sI1304
L1461176L
sI1305
L1461183L
sI1306
L1461197L
sI1307
L1461213L
sI1308
L1461261L
sI1309
L1461273L
sI1310
L1461323L
sI1311
L1461344L
sI1312
L1461363L
sI1313
L1461435L
sI1314
L1461464L
sI1315
L1461509L
sI1316
L1461522L
sI1317
L1461531L
sI1318
L1461555L
sI1319
L1461569L
sI1320
L1461591L
sI1321
L1461676L
sI1322
L1461693L
sI1323
L1461702L
sI1324
L1461734L
sI1325
L1461992L
sI1326
L1462090L
sI1327
L1462112L
sI1328
L1462204L
sI1329
L1462241L
sI1330
L1462249L
sI1331
L1462462L
sI1332
L1462481L
sI1333
L1462622L
sI1334
L1463524L
sI1335
L1465835L
sI1336
L1465836L
sI1337
L1465838L
sI1338
L1465881L
sI1339
L1465884L
sI1340
L1465888L
sI1341
L1465911L
sI1342
L1465915L
sI1343
L1465926L
sI1344
L1465987L
sI1345
L1466165L
sI1346
L1466318L
sI1347
L1466332L
sI1348
L1466396L
sI1349
L1466466L
sI1350
L1466472L
sI1351
L1466497L
sI1352
L1466503L
sI1353
L1466506L
sI1354
L1466520L
sI1355
L1466618L
sI1356
L1466776L
sI1357
L1466801L
sI1358
L1467039L
sI1359
L1467325L
sI1360
L1467484L
sI1361
L1467713L
sI1362
L1467781L
sI1363
L1469625L
sI1364
L1469869L
sI1365
L1470189L
sI1366
L1471405L
sI1367
L1471599L
sI1368
L1471627L
sI1369
L1471705L
sI1370
L1471774L
sI1371
L1471886L
sI1372
L1471928L
sI1373
L1471991L
sI1374
L1472018L
sI1375
L1472070L
sI1376
L1472220L
sI1377
L1472229L
sI1378
L1472242L
sI1379
L1472505L
sI1380
L1472674L
sI1381
L1472685L
sI1382
L1472689L
sI1383
L1472693L
sI1384
L1472698L
sI1385
L1472701L
sI1386
L1472710L
sI1387
L1472726L
sI1388
L1472727L
sI1389
L1472732L
sI1390
L1472737L
sI1391
L1472744L
sI1392
L1472745L
sI1393
L1472757L
sI1394
L1472762L
sI1395
L1472765L
sI1396
L1472766L
sI1397
L1472776L
sI1398
L1472783L
sI1399
L1472789L
sI1400
L1472795L
sI1401
L1472804L
sI1402
L1472809L
sI1403
L1472810L
sI1404
L1472821L
sI1405
L1472848L
sI1406
L1472854L
sI1407
L1472868L
sI1408
L1472869L
sI1409
L1472870L
sI1410
L1472874L
sI1411
L1472879L
sI1412
L1472880L
sI1413
L1472881L
sI1414
L1472884L
sI1415
L1472891L
sI1416
L1472893L
sI1417
L1472895L
sI1418
L1472900L
sI1419
L1472905L
sI1420
L1472921L
sI1421
L1472922L
sI1422
L1472930L
sI1423
L1472935L
sI1424
L1472937L
sI1425
L1472940L
sI1426
L1472944L
sI1427
L1472951L
sI1428
L1472957L
sI1429
L1472960L
sI1430
L1472970L
sI1431
L1472989L
sI1432
L1472999L
sI1433
L1473005L
sI1434
L1473018L
sI1435
L1473027L
sI1436
L1473036L
sI1437
L1473039L
sI1438
L1473040L
sI1439
L1473052L
sI1440
L1473055L
sI1441
L1473062L
sI1442
L1473064L
sI1443
L1473089L
sI1444
L1473092L
sI1445
L1473102L
sI1446
L1473113L
sI1447
L1473117L
sI1448
L1473118L
sI1449
L1473119L
sI1450
L1473141L
sI1451
L1473144L
sI1452
L1473146L
sI1453
L1473149L
sI1454
L1473151L
sI1455
L1473152L
sI1456
L1473154L
sI1457
L1473159L
sI1458
L1473160L
sI1459
L1473171L
sI1460
L1473180L
sI1461
L1473185L
sI1462
L1473198L
sI1463
L1473204L
sI1464
L1473206L
sI1465
L1473214L
sI1466
L1473218L
sI1467
L1473227L
sI1468
L1473246L
sI1469
L1473271L
sI1470
L1473275L
sI1471
L1473284L
sI1472
L1473292L
sI1473
L1473302L
sI1474
L1473324L
sI1475
L1473364L
sI1476
L1473376L
sI1477
L1473381L
sI1478
L1473384L
sI1479
L1473400L
sI1480
L1473403L
sI1481
L1473468L
sI1482
L1473480L
sI1483
L1473501L
sI1484
L1473509L
sI1485
L1473519L
sI1486
L1473528L
sI1487
L1473529L
sI1488
L1473530L
sI1489
L1473534L
sI1490
L1473553L
sI1491
L1473576L
sI1492
L1473584L
sI1493
L1473589L
sI1494
L1473590L
sI1495
L1473605L
sI1496
L1473617L
sI1497
L1473627L
sI1498
L1473635L
sI1499
L1473639L
sI1500
L1473662L
sI1501
L1473670L
sI1502
L1473698L
sI1503
L1473717L
sI1504
L1473726L
sI1505
L1473730L
sI1506
L1473748L
sI1507
L1473801L
sI1508
L1473804L
sI1509
L1473805L
sI1510
L1473824L
sI1511
L1473855L
sI1512
L1473898L
sI1513
L1473941L
sI1514
L1473985L
sI1515
L1473992L
sI1516
L1474021L
sI1517
L1474061L
sI1518
L1474064L
sI1519
L1474102L
sI1520
L1474128L
sI1521
L1474135L
sI1522
L1474145L
sI1523
L1474169L
sI1524
L1474207L
sI1525
L1474222L
sI1526
L1474226L
sI1527
L1474230L
sI1528
L1474273L
sI1529
L1474339L
sI1530
L1474404L
sI1531
L1474499L
sI1532
L1474503L
sI1533
L1474540L
sI1534
L1474593L
sI1535
L1474597L
sI1536
L1474604L
sI1537
L1474765L
sI1538
L1474777L
sI1539
L1474798L
sI1540
L1474824L
sI1541
L1474830L
sI1542
L1474876L
sI1543
L1474959L
sI1544
L1475004L
sI1545
L1475055L
sI1546
L1475074L
sI1547
L1475096L
sI1548
L1475123L
sI1549
L1475137L
sI1550
L1475415L
sI1551
L1475467L
sI1552
L1475496L
sI1553
L1475706L
sI1554
L1475823L
sI1555
L1475853L
sI1556
L1475865L
sI1557
L1475892L
sI1558
L1475904L
sI1559
L1475942L
sI1560
L1475968L
sI1561
L1475975L
sI1562
L1476253L
sI1563
L1476639L
sI1564
L1476816L
sI1565
L1482157L
sI1566
L1485147L
sI1567
L1485407L
sI1568
L1600177L
sI1569
L1602692L
sI1570
L1713892L
sI1571
L1731998L
sI1572
L1757117L
sI1573
L1760299L
sI1574
L1796052L
sI1575
L1880301L
sI1576
L1884988L
sI1577
L1888244L
sI1578
L1896095L
sI1579
L1969476L
sI1580
L1971045L
sI1581
L1971445L
sI1582
L1971509L
sI1583
L1972754L
sI1584
L1975106L
sI1585
L1991367L
sI1586
L1991499L
sI1587
L1992137L
sI1588
L1995061L
sI1589
L1995068L
sI1590
L2001042L
sI1591
L2001374L
sI1592
L2001379L
sI1593
L2001403L
sI1594
L2001466L
sI1595
L2001494L
sI1596
L2001534L
sI1597
L2001826L
sI1598
L2002162L
sI1599
L2003545L
sI1600
L2004221L
sI1601
L2005565L
sI1602
L2006005L
sI1603
L2006568L
sI1604
L2007521L
sI1605
L2007700L
sI1606
L2008144L
sI1607
L2010564L
sI1608
L2022777L
sI1609
L2025337L
sI1610
L2030256L
sI1611
L2031536L
sI1612
L2032477L
sI1613
L2036227L
sI1614
L2039309L
sI1615
L2046405L
sI1616
L2062291L
sI1617
L2062333L
sI1618
L2062434L
sI1619
L2062441L
sI1620
L2063369L
sI1621
L2067587L
sI1622
L2067644L
sI1623
L2085338L
sI1624
L2092715L
sI1625
L2093151L
sI1626
L2097480L
sI1627
L2097837L
sI1628
L2100088L
sI1629
L2100163L
sI1630
L2100175L
sI1631
L2100223L
sI1632
L2100233L
sI1633
L2100235L
sI1634
L2100338L
sI1635
L2100577L
sI1636
L2100687L
sI1637
L2100849L
sI1638
L2101044L
sI1639
L2101592L
sI1640
L2103489L
sI1641
L2104669L
sI1642
L2104935L
sI1643
L2105051L
sI1644
L2108186L
sI1645
L2108223L
sI1646
L2109019L
sI1647
L2109126L
sI1648
L2114271L
sI1649
L2114821L
sI1650
L2115100L
sI1651
L2115837L
sI1652
L2118357L
sI1653
L2128084L
sI1654
L2130799L
sI1655
L2137200L
sI1656
L2138721L
sI1657
L2139203L
sI1658
L2139264L
sI1659
L2139284L
sI1660
L2139428L
sI1661
L2141651L
sI1662
L2142120L
sI1663
L2142562L
sI1664
L2142593L
sI1665
L2142675L
sI1666
L2149617L
sI1667
L2156716L
sI1668
L2167730L
sI1669
L2176184L
sI1670
L2176248L
sI1671
L2177568L
sI1672
L2241686L
sI1673
L2475694L
sI1674
L2523084L
sI1675
L2536957L
sI1676
L2559895L
sI1677
L2601837L
sI1678
L2602555L
sI1679
L2933532L
sI1680
L2965868L
sI1681
L2966441L
sI1682
L2979173L
sI1683
L3009207L
sI1684
L3075048L
sI1685
L3129379L
sI1686
L3140154L
sI1687
L3151714L
sI1688
L3156938L
sI1689
L3165237L
sI1690
L3177130L
sI1691
L3202848L
sI1692
L3226354L
sI1693
L3304008L
sI1694
L3310003L
sI1695
L3311741L
sI1696
L3311988L
sI1697
L3312099L
sI1698
L3317258L
sI1699
L3317263L
sI1700
L3317778L
sI1701
L3317839L
sI1702
L3321813L
sI1703
L3321961L
sI1704
L3326390L
sI1705
L3397246L
sI1706
L3405074L
sI1707
L3456225L
sI1708
L3531584L
sI1709
L3549042L
sI1710
L3555879L
sI1711
L3558968L
sI1712
L3565118L
sI1713
L3568370L
sI1714
L3587316L
sI1715
L3600615L
sI1716
L3604616L
sI1717
L3625078L
sI1718
L3627990L
sI1719
L3631693L
sI1720
L3657346L
sI1721
L3658757L
sI1722
L3668203L
sI1723
L3669234L
sI1724
L3670744L
sI1725
L3676707L
sI1726
L3705017L
sI1727
L3714989L
sI1728
L3983785L
sI1729
L4187385L
sI1730
L4259256L
sI1731
L4903833L
sI1732
L5042832L
sI1733
L5090950L
sI1734
L5096567L
sI1735
L5104087L
sI1736
L5105251L
sI1737
L5329095L
sI1738
L5331757L
sI1739
L5335035L
sI1740
L5838730L
sI1741
L5867817L
sI1742
L5872575L
sI1743
L5873503L
sI1744
L6288788L
sI1745
L6289214L
sI1746
L6291322L
sI1747
L6292972L
sI1748
L6337889L
sI1749
L6407139L
sI1750
L6511167L
sI1751
L6575561L
sI1752
L6578400L
sI1753
L6653886L
sI1754
L6663952L
sI1755
L6664003L
sI1756
L6667532L
sI1757
L6715134L
sI1758
L6716613L
sI1759
L6741648L
sI1760
L6823178L
sI1761
L6826494L
sI1762
L6826523L
sI1763
L6826528L
sI1764
L6826550L
sI1765
L6826620L
sI1766
L6826665L
sI1767
L6826748L
sI1768
L6826786L
sI1769
L6826817L
sI1770
L6826932L
sI1771
L6826960L
sI1772
L6827005L
sI1773
L6827149L
sI1774
L6827203L
sI1775
L6827208L
sI1776
L6827213L
sI1777
L6827288L
sI1778
L6827368L
sI1779
L6827416L
sI1780
L6827445L
sI1781
L6827790L
sI1782
L6827791L
sI1783
L6827951L
sI1784
L6827981L
sI1785
L6828006L
sI1786
L6828065L
sI1787
L6828077L
sI1788
L6828401L
sI1789
L6828528L
sI1790
L6828806L
sI1791
L6829018L
sI1792
L6829044L
sI1793
L6829085L
sI1794
L6829425L
sI1795
L6829426L
sI1796
L6829492L
sI1797
L6829508L
sI1798
L6829529L
sI1799
L6829538L
sI1800
L6829544L
sI1801
L6829546L
sI1802
L6829557L
sI1803
L6829562L
sI1804
L6829570L
sI1805
L6829580L
sI1806
L6829581L
sI1807
L6829586L
sI1808
L6829628L
sI1809
L6829640L
sI1810
L6829658L
sI1811
L6829670L
sI1812
L6829713L
sI1813
L6829715L
sI1814
L6829716L
sI1815
L6829732L
sI1816
L6829734L
sI1817
L6829737L
sI1818
L6829739L
sI1819
L6829740L
sI1820
L6829741L
sI1821
L6829742L
sI1822
L6829750L
sI1823
L6829752L
sI1824
L6829758L
sI1825
L6829759L
sI1826
L6829764L
sI1827
L6829765L
sI1828
L6829766L
sI1829
L6829769L
sI1830
L6829770L
sI1831
L6829771L
sI1832
L6829772L
sI1833
L6829773L
sI1834
L6829774L
sI1835
L6829776L
sI1836
L6829777L
sI1837
L6829780L
sI1838
L6829781L
sI1839
L6829792L
sI1840
L6829794L
sI1841
L6829800L
sI1842
L6829809L
sI1843
L6829810L
sI1844
L6829811L
sI1845
L6829812L
sI1846
L6829813L
sI1847
L6829818L
sI1848
L6829820L
sI1849
L6829821L
sI1850
L6829823L
sI1851
L6829826L
sI1852
L6829830L
sI1853
L6829833L
sI1854
L6829834L
sI1855
L6829836L
sI1856
L6829839L
sI1857
L6829840L
sI1858
L6829843L
sI1859
L6829849L
sI1860
L6829852L
sI1861
L6829853L
sI1862
L6829856L
sI1863
L6829857L
sI1864
L6829864L
sI1865
L6829865L
sI1866
L6829870L
sI1867
L6829871L
sI1868
L6829872L
sI1869
L6829873L
sI1870
L6829875L
sI1871
L6829876L
sI1872
L6829878L
sI1873
L6829880L
sI1874
L6829884L
sI1875
L6829885L
sI1876
L6829887L
sI1877
L6829888L
sI1878
L6829891L
sI1879
L6829893L
sI1880
L6829896L
sI1881
L6829900L
sI1882
L6829901L
sI1883
L6829903L
sI1884
L6829909L
sI1885
L6829910L
sI1886
L6829913L
sI1887
L6829916L
sI1888
L6829917L
sI1889
L6829918L
sI1890
L6829919L
sI1891
L6829928L
sI1892
L6829935L
sI1893
L6829936L
sI1894
L6829947L
sI1895
L6829948L
sI1896
L6829949L
sI1897
L6829958L
sI1898
L6829959L
sI1899
L6829961L
sI1900
L6829962L
sI1901
L6829971L
sI1902
L6829975L
sI1903
L6829977L
sI1904
L6829978L
sI1905
L6829980L
sI1906
L6829986L
sI1907
L6829987L
sI1908
L6829988L
sI1909
L6829989L
sI1910
L6829992L
sI1911
L6829994L
sI1912
L6829995L
sI1913
L6829997L
sI1914
L6829998L
sI1915
L6830000L
sI1916
L6830001L
sI1917
L6830006L
sI1918
L6830039L
sI1919
L6830051L
sI1920
L6830052L
sI1921
L6830053L
sI1922
L6830054L
sI1923
L6830055L
sI1924
L6830062L
sI1925
L6830069L
sI1926
L6830077L
sI1927
L6830078L
sI1928
L6830083L
sI1929
L6830097L
sI1930
L6830101L
sI1931
L6830122L
sI1932
L6830124L
sI1933
L6830126L
sI1934
L6830167L
sI1935
L6830168L
sI1936
L6830169L
sI1937
L6830170L
sI1938
L6830177L
sI1939
L6830178L
sI1940
L6830182L
sI1941
L6830188L
sI1942
L6830189L
sI1943
L6830194L
sI1944
L6830250L
sI1945
L6830275L
sI1946
L6830279L
sI1947
L6830293L
sI1948
L6830334L
sI1949
L6830345L
sI1950
L6830350L
sI1951
L6830351L
sI1952
L6830353L
sI1953
L6830375L
sI1954
L6830386L
sI1955
L6830406L
sI1956
L6830408L
sI1957
L6830415L
sI1958
L6830416L
sI1959
L6830422L
sI1960
L6830423L
sI1961
L6830425L
sI1962
L6830475L
sI1963
L6830479L
sI1964
L6830481L
sI1965
L6830486L
sI1966
L6830488L
sI1967
L6830492L
sI1968
L6830496L
sI1969
L6830499L
sI1970
L6830500L
sI1971
L6830535L
sI1972
L6830537L
sI1973
L6830569L
sI1974
L6830585L
sI1975
L6830589L
sI1976
L6830614L
sI1977
L6830622L
sI1978
L6830629L
sI1979
L6830632L
sI1980
L6830634L
sI1981
L6830635L
sI1982
L6830697L
sI1983
L6830750L
sI1984
L6830752L
sI1985
L6830753L
sI1986
L6830758L
sI1987
L6830762L
sI1988
L6830942L
sI1989
L6830943L
sI1990
L6830944L
sI1991
L6830953L
sI1992
L6830954L
sI1993
L6830957L
sI1994
L6830958L
sI1995
L6830961L
sI1996
L6830964L
sI1997
L6830977L
sI1998
L6830998L
sI1999
L6831009L
sI2000
L6831014L
sI2001
L6831022L
sI2002
L6831023L
sI2003
L6831024L
sI2004
L6831037L
sI2005
L6831039L
sI2006
L6831045L
sI2007
L6831046L
sI2008
L6831055L
sI2009
L6831057L
sI2010
L6831076L
sI2011
L6831077L
sI2012
L6831078L
sI2013
L6831153L
sI2014
L6831169L
sI2015
L6831186L
sI2016
L6831209L
sI2017
L6831212L
sI2018
L6831215L
sI2019
L6831219L
sI2020
L6831221L
sI2021
L6831225L
sI2022
L6831232L
sI2023
L6831235L
sI2024
L6831239L
sI2025
L6831249L
sI2026
L6831253L
sI2027
L6831256L
sI2028
L6831262L
sI2029
L6831283L
sI2030
L6831300L
sI2031
L6831308L
sI2032
L6831314L
sI2033
L6831407L
sI2034
L6831413L
sI2035
L6831436L
sI2036
L6831475L
sI2037
L6831476L
sI2038
L6831491L
sI2039
L6831508L
sI2040
L6831521L
sI2041
L6831522L
sI2042
L6831527L
sI2043
L6831558L
sI2044
L6831627L
sI2045
L6831646L
sI2046
L6831679L
sI2047
L6831704L
sI2048
L6831764L
sI2049
L6831781L
sI2050
L6831782L
sI2051
L6831791L
sI2052
L6831792L
sI2053
L6831800L
sI2054
L6831807L
sI2055
L6831808L
sI2056
L6831809L
sI2057
L6831817L
sI2058
L6831822L
sI2059
L6831825L
sI2060
L6831829L
sI2061
L6831830L
sI2062
L6831838L
sI2063
L6831841L
sI2064
L6831842L
sI2065
L6831844L
sI2066
L6831847L
sI2067
L6831848L
sI2068
L6831851L
sI2069
L6831853L
sI2070
L6831870L
sI2071
L6831878L
sI2072
L6831883L
sI2073
L6831885L
sI2074
L6831890L
sI2075
L6831893L
sI2076
L6831897L
sI2077
L6831898L
sI2078
L6831910L
sI2079
L6831960L
sI2080
L6831981L
sI2081
L6832001L
sI2082
L6832074L
sI2083
L6832076L
sI2084
L6832113L
sI2085
L6832137L
sI2086
L6832141L
sI2087
L6832143L
sI2088
L6832148L
sI2089
L6832151L
sI2090
L6832153L
sI2091
L6832157L
sI2092
L6832220L
sI2093
L6832223L
sI2094
L6832224L
sI2095
L6832225L
sI2096
L6832240L
sI2097
L6832339L
sI2098
L6832379L
sI2099
L6832387L
sI2100
L6832392L
sI2101
L6832393L
sI2102
L6832399L
sI2103
L6832412L
sI2104
L6832413L
sI2105
L6832414L
sI2106
L6832417L
sI2107
L6832446L
sI2108
L6832466L
sI2109
L6832483L
sI2110
L6832515L
sI2111
L6832524L
sI2112
L6832602L
sI2113
L6832611L
sI2114
L6832635L
sI2115
L6832757L
sI2116
L6832759L
sI2117
L6832760L
sI2118
L6832772L
sI2119
L6832784L
sI2120
L6832787L
sI2121
L6832840L
sI2122
L6832857L
sI2123
L6832862L
sI2124
L6832865L
sI2125
L6832904L
sI2126
L6832916L
sI2127
L6832951L
sI2128
L6832953L
sI2129
L6832956L
sI2130
L6832958L
sI2131
L6832959L
sI2132
L6832960L
sI2133
L6832961L
sI2134
L6832971L
sI2135
L6832981L
sI2136
L6832984L
sI2137
L6832985L
sI2138
L6832986L
sI2139
L6832989L
sI2140
L6832990L
sI2141
L6832991L
sI2142
L6832995L
sI2143
L6833004L
sI2144
L6833015L
sI2145
L6833016L
sI2146
L6833091L
sI2147
L6833093L
sI2148
L6833101L
sI2149
L6833102L
sI2150
L6833104L
sI2151
L6833106L
sI2152
L6833124L
sI2153
L6833127L
sI2154
L6833131L
sI2155
L6833146L
sI2156
L6833171L
sI2157
L6833194L
sI2158
L6833235L
sI2159
L6833254L
sI2160
L6833264L
sI2161
L6833320L
sI2162
L6833321L
sI2163
L6833330L
sI2164
L6833411L
sI2165
L6833413L
sI2166
L6833416L
sI2167
L6833418L
sI2168
L6833419L
sI2169
L6833421L
sI2170
L6833445L
sI2171
L6833449L
sI2172
L6833456L
sI2173
L6833458L
sI2174
L6833459L
sI2175
L6833465L
sI2176
L6833468L
sI2177
L6833470L
sI2178
L6833471L
sI2179
L6833481L
sI2180
L6833483L
sI2181
L6833485L
sI2182
L6833487L
sI2183
L6833488L
sI2184
L6833489L
sI2185
L6833492L
sI2186
L6833507L
sI2187
L6833517L
sI2188
L6833519L
sI2189
L6833543L
sI2190
L6833551L
sI2191
L6833589L
sI2192
L6833596L
sI2193
L6833598L
sI2194
L6833614L
sI2195
L6833637L
sI2196
L6833663L
sI2197
L6833743L
sI2198
L6833753L
sI2199
L6833789L
sI2200
L6833881L
sI2201
L6833885L
sI2202
L6833888L
sI2203
L6833889L
sI2204
L6833907L
sI2205
L6833915L
sI2206
L6833936L
sI2207
L6833972L
sI2208
L6834007L
sI2209
L6834010L
sI2210
L6834019L
sI2211
L6834021L
sI2212
L6834074L
sI2213
L6834088L
sI2214
L6834106L
sI2215
L6834108L
sI2216
L6834115L
sI2217
L6834188L
sI2218
L6834218L
sI2219
L6834235L
sI2220
L6834244L
sI2221
L6834246L
sI2222
L6834292L
sI2223
L6834309L
sI2224
L6834310L
sI2225
L6834318L
sI2226
L6834320L
sI2227
L6834341L
sI2228
L6834351L
sI2229
L6834372L
sI2230
L6834404L
sI2231
L6834411L
sI2232
L6834412L
sI2233
L6834415L
sI2234
L6834425L
sI2235
L6834427L
sI2236
L6834477L
sI2237
L6834482L
sI2238
L6834538L
sI2239
L6834539L
sI2240
L6834540L
sI2241
L6834542L
sI2242
L6834544L
sI2243
L6834546L
sI2244
L6834547L
sI2245
L6834548L
sI2246
L6834549L
sI2247
L6834551L
sI2248
L6834553L
sI2249
L6834555L
sI2250
L6834557L
sI2251
L6834559L
sI2252
L6834561L
sI2253
L6834563L
sI2254
L6834567L
sI2255
L6834629L
sI2256
L6834632L
sI2257
L6834686L
sI2258
L6834718L
sI2259
L6834729L
sI2260
L6834746L
sI2261
L6834781L
sI2262
L6834782L
sI2263
L6834808L
sI2264
L6834811L
sI2265
L6834822L
sI2266
L6834824L
sI2267
L6834897L
sI2268
L6834917L
sI2269
L6834954L
sI2270
L6834986L
sI2271
L6835004L
sI2272
L6835012L
sI2273
L6835050L
sI2274
L6835077L
sI2275
L6835138L
sI2276
L6835140L
sI2277
L6835184L
sI2278
L6835192L
sI2279
L6835218L
sI2280
L6835219L
sI2281
L6835309L
sI2282
L6835339L
sI2283
L6835389L
sI2284
L6835392L
sI2285
L6835400L
sI2286
L6835445L
sI2287
L6835447L
sI2288
L6835490L
sI2289
L6835501L
sI2290
L6835502L
sI2291
L6835503L
sI2292
L6835505L
sI2293
L6835609L
sI2294
L6835628L
sI2295
L6835631L
sI2296
L6835667L
sI2297
L6835724L
sI2298
L6835742L
sI2299
L6835854L
sI2300
L6835916L
sI2301
L6835926L
sI2302
L6836004L
sI2303
L6836020L
sI2304
L6836376L
sI2305
L6836643L
sI2306
L6836926L
sI2307
L6837027L
sI2308
L6837078L
sI2309
L6837170L
sI2310
L6837213L
sI2311
L6837305L
sI2312
L6837312L
sI2313
L6837689L
sI2314
L6837876L
sI2315
L6838478L
sI2316
L6838504L
sI2317
L6838668L
sI2318
L6839361L
sI2319
L6839479L
sI2320
L6839503L
sI2321
L6839542L
sI2322
L6839547L
sI2323
L6839572L
sI2324
L6839599L
sI2325
L6839623L
sI2326
L6839646L
sI2327
L6839662L
sI2328
L6839710L
sI2329
L6840295L
s.